Archive member included to satisfy reference by file (symbol)

c:/intelfpga_lite/20.1/nios2eds/bin/gnu/h-x86_64-mingw32/bin/../lib/gcc/nios2-elf/10.1.1/mno-hw-mul\libgcc.a(lib2-divmod.o)
                              obj/default/mem_verify.o (__udivsi3)
c:/intelfpga_lite/20.1/nios2eds/bin/gnu/h-x86_64-mingw32/bin/../lib/gcc/nios2-elf/10.1.1/mno-hw-mul\libgcc.a(lib2-mul.o)
                              obj/default/mem_verify.o (__mulsi3)
c:/intelfpga_lite/20.1/nios2eds/bin/gnu/h-x86_64-mingw32/bin/../lib/gcc/nios2-elf/10.1.1/../../../../../H-x86_64-mingw32/nios2-elf/lib/mno-hw-mul\libc.a(lib_a-memcpy.o)
                              obj/default/mem_verify.o (memcpy)
c:/intelfpga_lite/20.1/nios2eds/bin/gnu/h-x86_64-mingw32/bin/../lib/gcc/nios2-elf/10.1.1/../../../../../H-x86_64-mingw32/nios2-elf/lib/mno-hw-mul\libc.a(lib_a-printf.o)
                              obj/default/main.o (printf)
c:/intelfpga_lite/20.1/nios2eds/bin/gnu/h-x86_64-mingw32/bin/../lib/gcc/nios2-elf/10.1.1/../../../../../H-x86_64-mingw32/nios2-elf/lib/mno-hw-mul\libc.a(lib_a-putchar.o)
                              obj/default/mem_verify.o (putchar)
c:/intelfpga_lite/20.1/nios2eds/bin/gnu/h-x86_64-mingw32/bin/../lib/gcc/nios2-elf/10.1.1/../../../../../H-x86_64-mingw32/nios2-elf/lib/mno-hw-mul\libc.a(lib_a-puts.o)
                              obj/default/main.o (puts)
c:/intelfpga_lite/20.1/nios2eds/bin/gnu/h-x86_64-mingw32/bin/../lib/gcc/nios2-elf/10.1.1/../../../../../H-x86_64-mingw32/nios2-elf/lib/mno-hw-mul\libc.a(lib_a-rand.o)
                              obj/default/mem_verify.o (srand)
c:/intelfpga_lite/20.1/nios2eds/bin/gnu/h-x86_64-mingw32/bin/../lib/gcc/nios2-elf/10.1.1/../../../../../H-x86_64-mingw32/nios2-elf/lib/mno-hw-mul\libc.a(lib_a-strlen.o)
                              c:/intelfpga_lite/20.1/nios2eds/bin/gnu/h-x86_64-mingw32/bin/../lib/gcc/nios2-elf/10.1.1/../../../../../H-x86_64-mingw32/nios2-elf/lib/mno-hw-mul\libc.a(lib_a-puts.o) (strlen)
c:/intelfpga_lite/20.1/nios2eds/bin/gnu/h-x86_64-mingw32/bin/../lib/gcc/nios2-elf/10.1.1/../../../../../H-x86_64-mingw32/nios2-elf/lib/mno-hw-mul\libc.a(lib_a-vfprintf.o)
                              c:/intelfpga_lite/20.1/nios2eds/bin/gnu/h-x86_64-mingw32/bin/../lib/gcc/nios2-elf/10.1.1/../../../../../H-x86_64-mingw32/nios2-elf/lib/mno-hw-mul\libc.a(lib_a-printf.o) (___vfprintf_internal_r)
c:/intelfpga_lite/20.1/nios2eds/bin/gnu/h-x86_64-mingw32/bin/../lib/gcc/nios2-elf/10.1.1/../../../../../H-x86_64-mingw32/nios2-elf/lib/mno-hw-mul\libc.a(lib_a-wsetup.o)
                              c:/intelfpga_lite/20.1/nios2eds/bin/gnu/h-x86_64-mingw32/bin/../lib/gcc/nios2-elf/10.1.1/../../../../../H-x86_64-mingw32/nios2-elf/lib/mno-hw-mul\libc.a(lib_a-vfprintf.o) (__swsetup_r)
c:/intelfpga_lite/20.1/nios2eds/bin/gnu/h-x86_64-mingw32/bin/../lib/gcc/nios2-elf/10.1.1/../../../../../H-x86_64-mingw32/nios2-elf/lib/mno-hw-mul\libc.a(lib_a-dtoa.o)
                              c:/intelfpga_lite/20.1/nios2eds/bin/gnu/h-x86_64-mingw32/bin/../lib/gcc/nios2-elf/10.1.1/../../../../../H-x86_64-mingw32/nios2-elf/lib/mno-hw-mul\libc.a(lib_a-vfprintf.o) (_dtoa_r)
c:/intelfpga_lite/20.1/nios2eds/bin/gnu/h-x86_64-mingw32/bin/../lib/gcc/nios2-elf/10.1.1/../../../../../H-x86_64-mingw32/nios2-elf/lib/mno-hw-mul\libc.a(lib_a-fflush.o)
                              c:/intelfpga_lite/20.1/nios2eds/bin/gnu/h-x86_64-mingw32/bin/../lib/gcc/nios2-elf/10.1.1/../../../../../H-x86_64-mingw32/nios2-elf/lib/mno-hw-mul\libc.a(lib_a-vfprintf.o) (_fflush_r)
c:/intelfpga_lite/20.1/nios2eds/bin/gnu/h-x86_64-mingw32/bin/../lib/gcc/nios2-elf/10.1.1/../../../../../H-x86_64-mingw32/nios2-elf/lib/mno-hw-mul\libc.a(lib_a-findfp.o)
                              c:/intelfpga_lite/20.1/nios2eds/bin/gnu/h-x86_64-mingw32/bin/../lib/gcc/nios2-elf/10.1.1/../../../../../H-x86_64-mingw32/nios2-elf/lib/mno-hw-mul\libc.a(lib_a-puts.o) (__sinit)
c:/intelfpga_lite/20.1/nios2eds/bin/gnu/h-x86_64-mingw32/bin/../lib/gcc/nios2-elf/10.1.1/../../../../../H-x86_64-mingw32/nios2-elf/lib/mno-hw-mul\libc.a(lib_a-freer.o)
                              c:/intelfpga_lite/20.1/nios2eds/bin/gnu/h-x86_64-mingw32/bin/../lib/gcc/nios2-elf/10.1.1/../../../../../H-x86_64-mingw32/nios2-elf/lib/mno-hw-mul\libc.a(lib_a-wsetup.o) (_free_r)
c:/intelfpga_lite/20.1/nios2eds/bin/gnu/h-x86_64-mingw32/bin/../lib/gcc/nios2-elf/10.1.1/../../../../../H-x86_64-mingw32/nios2-elf/lib/mno-hw-mul\libc.a(lib_a-fvwrite.o)
                              c:/intelfpga_lite/20.1/nios2eds/bin/gnu/h-x86_64-mingw32/bin/../lib/gcc/nios2-elf/10.1.1/../../../../../H-x86_64-mingw32/nios2-elf/lib/mno-hw-mul\libc.a(lib_a-puts.o) (__sfvwrite_r)
c:/intelfpga_lite/20.1/nios2eds/bin/gnu/h-x86_64-mingw32/bin/../lib/gcc/nios2-elf/10.1.1/../../../../../H-x86_64-mingw32/nios2-elf/lib/mno-hw-mul\libc.a(lib_a-fwalk.o)
                              c:/intelfpga_lite/20.1/nios2eds/bin/gnu/h-x86_64-mingw32/bin/../lib/gcc/nios2-elf/10.1.1/../../../../../H-x86_64-mingw32/nios2-elf/lib/mno-hw-mul\libc.a(lib_a-findfp.o) (_fwalk)
c:/intelfpga_lite/20.1/nios2eds/bin/gnu/h-x86_64-mingw32/bin/../lib/gcc/nios2-elf/10.1.1/../../../../../H-x86_64-mingw32/nios2-elf/lib/mno-hw-mul\libc.a(lib_a-impure.o)
                              c:/intelfpga_lite/20.1/nios2eds/bin/gnu/h-x86_64-mingw32/bin/../lib/gcc/nios2-elf/10.1.1/../../../../../H-x86_64-mingw32/nios2-elf/lib/mno-hw-mul\libc.a(lib_a-fflush.o) (_global_impure_ptr)
c:/intelfpga_lite/20.1/nios2eds/bin/gnu/h-x86_64-mingw32/bin/../lib/gcc/nios2-elf/10.1.1/../../../../../H-x86_64-mingw32/nios2-elf/lib/mno-hw-mul\libc.a(lib_a-localeconv.o)
                              c:/intelfpga_lite/20.1/nios2eds/bin/gnu/h-x86_64-mingw32/bin/../lib/gcc/nios2-elf/10.1.1/../../../../../H-x86_64-mingw32/nios2-elf/lib/mno-hw-mul\libc.a(lib_a-vfprintf.o) (_localeconv_r)
c:/intelfpga_lite/20.1/nios2eds/bin/gnu/h-x86_64-mingw32/bin/../lib/gcc/nios2-elf/10.1.1/../../../../../H-x86_64-mingw32/nios2-elf/lib/mno-hw-mul\libc.a(lib_a-makebuf.o)
                              c:/intelfpga_lite/20.1/nios2eds/bin/gnu/h-x86_64-mingw32/bin/../lib/gcc/nios2-elf/10.1.1/../../../../../H-x86_64-mingw32/nios2-elf/lib/mno-hw-mul\libc.a(lib_a-wsetup.o) (__smakebuf_r)
c:/intelfpga_lite/20.1/nios2eds/bin/gnu/h-x86_64-mingw32/bin/../lib/gcc/nios2-elf/10.1.1/../../../../../H-x86_64-mingw32/nios2-elf/lib/mno-hw-mul\libc.a(lib_a-mallocr.o)
                              c:/intelfpga_lite/20.1/nios2eds/bin/gnu/h-x86_64-mingw32/bin/../lib/gcc/nios2-elf/10.1.1/../../../../../H-x86_64-mingw32/nios2-elf/lib/mno-hw-mul\libc.a(lib_a-findfp.o) (_malloc_r)
c:/intelfpga_lite/20.1/nios2eds/bin/gnu/h-x86_64-mingw32/bin/../lib/gcc/nios2-elf/10.1.1/../../../../../H-x86_64-mingw32/nios2-elf/lib/mno-hw-mul\libc.a(lib_a-memchr.o)
                              c:/intelfpga_lite/20.1/nios2eds/bin/gnu/h-x86_64-mingw32/bin/../lib/gcc/nios2-elf/10.1.1/../../../../../H-x86_64-mingw32/nios2-elf/lib/mno-hw-mul\libc.a(lib_a-vfprintf.o) (memchr)
c:/intelfpga_lite/20.1/nios2eds/bin/gnu/h-x86_64-mingw32/bin/../lib/gcc/nios2-elf/10.1.1/../../../../../H-x86_64-mingw32/nios2-elf/lib/mno-hw-mul\libc.a(lib_a-memmove.o)
                              c:/intelfpga_lite/20.1/nios2eds/bin/gnu/h-x86_64-mingw32/bin/../lib/gcc/nios2-elf/10.1.1/../../../../../H-x86_64-mingw32/nios2-elf/lib/mno-hw-mul\libc.a(lib_a-fvwrite.o) (memmove)
c:/intelfpga_lite/20.1/nios2eds/bin/gnu/h-x86_64-mingw32/bin/../lib/gcc/nios2-elf/10.1.1/../../../../../H-x86_64-mingw32/nios2-elf/lib/mno-hw-mul\libc.a(lib_a-memset.o)
                              c:/intelfpga_lite/20.1/nios2eds/bin/gnu/h-x86_64-mingw32/bin/../lib/gcc/nios2-elf/10.1.1/../../../../../H-x86_64-mingw32/nios2-elf/lib/mno-hw-mul\libc.a(lib_a-findfp.o) (memset)
c:/intelfpga_lite/20.1/nios2eds/bin/gnu/h-x86_64-mingw32/bin/../lib/gcc/nios2-elf/10.1.1/../../../../../H-x86_64-mingw32/nios2-elf/lib/mno-hw-mul\libc.a(lib_a-mprec.o)
                              c:/intelfpga_lite/20.1/nios2eds/bin/gnu/h-x86_64-mingw32/bin/../lib/gcc/nios2-elf/10.1.1/../../../../../H-x86_64-mingw32/nios2-elf/lib/mno-hw-mul\libc.a(lib_a-dtoa.o) (_Balloc)
c:/intelfpga_lite/20.1/nios2eds/bin/gnu/h-x86_64-mingw32/bin/../lib/gcc/nios2-elf/10.1.1/../../../../../H-x86_64-mingw32/nios2-elf/lib/mno-hw-mul\libc.a(lib_a-putc.o)
                              c:/intelfpga_lite/20.1/nios2eds/bin/gnu/h-x86_64-mingw32/bin/../lib/gcc/nios2-elf/10.1.1/../../../../../H-x86_64-mingw32/nios2-elf/lib/mno-hw-mul\libc.a(lib_a-putchar.o) (_putc_r)
c:/intelfpga_lite/20.1/nios2eds/bin/gnu/h-x86_64-mingw32/bin/../lib/gcc/nios2-elf/10.1.1/../../../../../H-x86_64-mingw32/nios2-elf/lib/mno-hw-mul\libc.a(lib_a-reallocr.o)
                              c:/intelfpga_lite/20.1/nios2eds/bin/gnu/h-x86_64-mingw32/bin/../lib/gcc/nios2-elf/10.1.1/../../../../../H-x86_64-mingw32/nios2-elf/lib/mno-hw-mul\libc.a(lib_a-fvwrite.o) (_realloc_r)
c:/intelfpga_lite/20.1/nios2eds/bin/gnu/h-x86_64-mingw32/bin/../lib/gcc/nios2-elf/10.1.1/../../../../../H-x86_64-mingw32/nios2-elf/lib/mno-hw-mul\libc.a(lib_a-sbrkr.o)
                              c:/intelfpga_lite/20.1/nios2eds/bin/gnu/h-x86_64-mingw32/bin/../lib/gcc/nios2-elf/10.1.1/../../../../../H-x86_64-mingw32/nios2-elf/lib/mno-hw-mul\libc.a(lib_a-freer.o) (_sbrk_r)
c:/intelfpga_lite/20.1/nios2eds/bin/gnu/h-x86_64-mingw32/bin/../lib/gcc/nios2-elf/10.1.1/../../../../../H-x86_64-mingw32/nios2-elf/lib/mno-hw-mul\libc.a(lib_a-stdio.o)
                              c:/intelfpga_lite/20.1/nios2eds/bin/gnu/h-x86_64-mingw32/bin/../lib/gcc/nios2-elf/10.1.1/../../../../../H-x86_64-mingw32/nios2-elf/lib/mno-hw-mul\libc.a(lib_a-findfp.o) (__sread)
c:/intelfpga_lite/20.1/nios2eds/bin/gnu/h-x86_64-mingw32/bin/../lib/gcc/nios2-elf/10.1.1/../../../../../H-x86_64-mingw32/nios2-elf/lib/mno-hw-mul\libc.a(lib_a-vfiprintf.o)
                              c:/intelfpga_lite/20.1/nios2eds/bin/gnu/h-x86_64-mingw32/bin/../lib/gcc/nios2-elf/10.1.1/../../../../../H-x86_64-mingw32/nios2-elf/lib/mno-hw-mul\libc.a(lib_a-vfprintf.o) (__sprint_r)
c:/intelfpga_lite/20.1/nios2eds/bin/gnu/h-x86_64-mingw32/bin/../lib/gcc/nios2-elf/10.1.1/../../../../../H-x86_64-mingw32/nios2-elf/lib/mno-hw-mul\libc.a(lib_a-wbuf.o)
                              c:/intelfpga_lite/20.1/nios2eds/bin/gnu/h-x86_64-mingw32/bin/../lib/gcc/nios2-elf/10.1.1/../../../../../H-x86_64-mingw32/nios2-elf/lib/mno-hw-mul\libc.a(lib_a-putc.o) (__swbuf_r)
c:/intelfpga_lite/20.1/nios2eds/bin/gnu/h-x86_64-mingw32/bin/../lib/gcc/nios2-elf/10.1.1/../../../../../H-x86_64-mingw32/nios2-elf/lib/mno-hw-mul\libc.a(lib_a-writer.o)
                              c:/intelfpga_lite/20.1/nios2eds/bin/gnu/h-x86_64-mingw32/bin/../lib/gcc/nios2-elf/10.1.1/../../../../../H-x86_64-mingw32/nios2-elf/lib/mno-hw-mul\libc.a(lib_a-stdio.o) (_write_r)
c:/intelfpga_lite/20.1/nios2eds/bin/gnu/h-x86_64-mingw32/bin/../lib/gcc/nios2-elf/10.1.1/../../../../../H-x86_64-mingw32/nios2-elf/lib/mno-hw-mul\libc.a(closer.o)
                              c:/intelfpga_lite/20.1/nios2eds/bin/gnu/h-x86_64-mingw32/bin/../lib/gcc/nios2-elf/10.1.1/../../../../../H-x86_64-mingw32/nios2-elf/lib/mno-hw-mul\libc.a(lib_a-stdio.o) (_close_r)
c:/intelfpga_lite/20.1/nios2eds/bin/gnu/h-x86_64-mingw32/bin/../lib/gcc/nios2-elf/10.1.1/../../../../../H-x86_64-mingw32/nios2-elf/lib/mno-hw-mul\libc.a(lib_a-assert.o)
                              c:/intelfpga_lite/20.1/nios2eds/bin/gnu/h-x86_64-mingw32/bin/../lib/gcc/nios2-elf/10.1.1/../../../../../H-x86_64-mingw32/nios2-elf/lib/mno-hw-mul\libc.a(lib_a-dtoa.o) (__assert_func)
c:/intelfpga_lite/20.1/nios2eds/bin/gnu/h-x86_64-mingw32/bin/../lib/gcc/nios2-elf/10.1.1/../../../../../H-x86_64-mingw32/nios2-elf/lib/mno-hw-mul\libc.a(lib_a-callocr.o)
                              c:/intelfpga_lite/20.1/nios2eds/bin/gnu/h-x86_64-mingw32/bin/../lib/gcc/nios2-elf/10.1.1/../../../../../H-x86_64-mingw32/nios2-elf/lib/mno-hw-mul\libc.a(lib_a-mprec.o) (_calloc_r)
c:/intelfpga_lite/20.1/nios2eds/bin/gnu/h-x86_64-mingw32/bin/../lib/gcc/nios2-elf/10.1.1/../../../../../H-x86_64-mingw32/nios2-elf/lib/mno-hw-mul\libc.a(lib_a-fclose.o)
                              c:/intelfpga_lite/20.1/nios2eds/bin/gnu/h-x86_64-mingw32/bin/../lib/gcc/nios2-elf/10.1.1/../../../../../H-x86_64-mingw32/nios2-elf/lib/mno-hw-mul\libc.a(lib_a-findfp.o) (_fclose_r)
c:/intelfpga_lite/20.1/nios2eds/bin/gnu/h-x86_64-mingw32/bin/../lib/gcc/nios2-elf/10.1.1/../../../../../H-x86_64-mingw32/nios2-elf/lib/mno-hw-mul\libc.a(lib_a-fiprintf.o)
                              c:/intelfpga_lite/20.1/nios2eds/bin/gnu/h-x86_64-mingw32/bin/../lib/gcc/nios2-elf/10.1.1/../../../../../H-x86_64-mingw32/nios2-elf/lib/mno-hw-mul\libc.a(lib_a-assert.o) (fiprintf)
c:/intelfpga_lite/20.1/nios2eds/bin/gnu/h-x86_64-mingw32/bin/../lib/gcc/nios2-elf/10.1.1/../../../../../H-x86_64-mingw32/nios2-elf/lib/mno-hw-mul\libc.a(lib_a-fputwc.o)
                              c:/intelfpga_lite/20.1/nios2eds/bin/gnu/h-x86_64-mingw32/bin/../lib/gcc/nios2-elf/10.1.1/../../../../../H-x86_64-mingw32/nios2-elf/lib/mno-hw-mul\libc.a(lib_a-vfiprintf.o) (_fputwc_r)
c:/intelfpga_lite/20.1/nios2eds/bin/gnu/h-x86_64-mingw32/bin/../lib/gcc/nios2-elf/10.1.1/../../../../../H-x86_64-mingw32/nios2-elf/lib/mno-hw-mul\libc.a(lib_a-fstatr.o)
                              c:/intelfpga_lite/20.1/nios2eds/bin/gnu/h-x86_64-mingw32/bin/../lib/gcc/nios2-elf/10.1.1/../../../../../H-x86_64-mingw32/nios2-elf/lib/mno-hw-mul\libc.a(lib_a-makebuf.o) (_fstat_r)
c:/intelfpga_lite/20.1/nios2eds/bin/gnu/h-x86_64-mingw32/bin/../lib/gcc/nios2-elf/10.1.1/../../../../../H-x86_64-mingw32/nios2-elf/lib/mno-hw-mul\libc.a(lib_a-int_errno.o)
                              c:/intelfpga_lite/20.1/nios2eds/bin/gnu/h-x86_64-mingw32/bin/../lib/gcc/nios2-elf/10.1.1/../../../../../H-x86_64-mingw32/nios2-elf/lib/mno-hw-mul\libc.a(lib_a-sbrkr.o) (errno)
c:/intelfpga_lite/20.1/nios2eds/bin/gnu/h-x86_64-mingw32/bin/../lib/gcc/nios2-elf/10.1.1/../../../../../H-x86_64-mingw32/nios2-elf/lib/mno-hw-mul\libc.a(lib_a-isattyr.o)
                              c:/intelfpga_lite/20.1/nios2eds/bin/gnu/h-x86_64-mingw32/bin/../lib/gcc/nios2-elf/10.1.1/../../../../../H-x86_64-mingw32/nios2-elf/lib/mno-hw-mul\libc.a(lib_a-makebuf.o) (_isatty_r)
c:/intelfpga_lite/20.1/nios2eds/bin/gnu/h-x86_64-mingw32/bin/../lib/gcc/nios2-elf/10.1.1/../../../../../H-x86_64-mingw32/nios2-elf/lib/mno-hw-mul\libc.a(lib_a-locale.o)
                              c:/intelfpga_lite/20.1/nios2eds/bin/gnu/h-x86_64-mingw32/bin/../lib/gcc/nios2-elf/10.1.1/../../../../../H-x86_64-mingw32/nios2-elf/lib/mno-hw-mul\libc.a(lib_a-fputwc.o) (__locale_mb_cur_max)
c:/intelfpga_lite/20.1/nios2eds/bin/gnu/h-x86_64-mingw32/bin/../lib/gcc/nios2-elf/10.1.1/../../../../../H-x86_64-mingw32/nios2-elf/lib/mno-hw-mul\libc.a(lib_a-lseekr.o)
                              c:/intelfpga_lite/20.1/nios2eds/bin/gnu/h-x86_64-mingw32/bin/../lib/gcc/nios2-elf/10.1.1/../../../../../H-x86_64-mingw32/nios2-elf/lib/mno-hw-mul\libc.a(lib_a-stdio.o) (_lseek_r)
c:/intelfpga_lite/20.1/nios2eds/bin/gnu/h-x86_64-mingw32/bin/../lib/gcc/nios2-elf/10.1.1/../../../../../H-x86_64-mingw32/nios2-elf/lib/mno-hw-mul\libc.a(lib_a-mbtowc_r.o)
                              c:/intelfpga_lite/20.1/nios2eds/bin/gnu/h-x86_64-mingw32/bin/../lib/gcc/nios2-elf/10.1.1/../../../../../H-x86_64-mingw32/nios2-elf/lib/mno-hw-mul\libc.a(lib_a-locale.o) (__ascii_mbtowc)
c:/intelfpga_lite/20.1/nios2eds/bin/gnu/h-x86_64-mingw32/bin/../lib/gcc/nios2-elf/10.1.1/../../../../../H-x86_64-mingw32/nios2-elf/lib/mno-hw-mul\libc.a(lib_a-readr.o)
                              c:/intelfpga_lite/20.1/nios2eds/bin/gnu/h-x86_64-mingw32/bin/../lib/gcc/nios2-elf/10.1.1/../../../../../H-x86_64-mingw32/nios2-elf/lib/mno-hw-mul\libc.a(lib_a-stdio.o) (_read_r)
c:/intelfpga_lite/20.1/nios2eds/bin/gnu/h-x86_64-mingw32/bin/../lib/gcc/nios2-elf/10.1.1/../../../../../H-x86_64-mingw32/nios2-elf/lib/mno-hw-mul\libc.a(lib_a-strcmp.o)
                              c:/intelfpga_lite/20.1/nios2eds/bin/gnu/h-x86_64-mingw32/bin/../lib/gcc/nios2-elf/10.1.1/../../../../../H-x86_64-mingw32/nios2-elf/lib/mno-hw-mul\libc.a(lib_a-locale.o) (strcmp)
c:/intelfpga_lite/20.1/nios2eds/bin/gnu/h-x86_64-mingw32/bin/../lib/gcc/nios2-elf/10.1.1/../../../../../H-x86_64-mingw32/nios2-elf/lib/mno-hw-mul\libc.a(lib_a-vfiprintfr_1.o)
                              c:/intelfpga_lite/20.1/nios2eds/bin/gnu/h-x86_64-mingw32/bin/../lib/gcc/nios2-elf/10.1.1/../../../../../H-x86_64-mingw32/nios2-elf/lib/mno-hw-mul\libc.a(lib_a-fiprintf.o) (_vfiprintf_r)
c:/intelfpga_lite/20.1/nios2eds/bin/gnu/h-x86_64-mingw32/bin/../lib/gcc/nios2-elf/10.1.1/../../../../../H-x86_64-mingw32/nios2-elf/lib/mno-hw-mul\libc.a(lib_a-wcrtomb.o)
                              c:/intelfpga_lite/20.1/nios2eds/bin/gnu/h-x86_64-mingw32/bin/../lib/gcc/nios2-elf/10.1.1/../../../../../H-x86_64-mingw32/nios2-elf/lib/mno-hw-mul\libc.a(lib_a-fputwc.o) (_wcrtomb_r)
c:/intelfpga_lite/20.1/nios2eds/bin/gnu/h-x86_64-mingw32/bin/../lib/gcc/nios2-elf/10.1.1/../../../../../H-x86_64-mingw32/nios2-elf/lib/mno-hw-mul\libc.a(lib_a-wctomb_r.o)
                              c:/intelfpga_lite/20.1/nios2eds/bin/gnu/h-x86_64-mingw32/bin/../lib/gcc/nios2-elf/10.1.1/../../../../../H-x86_64-mingw32/nios2-elf/lib/mno-hw-mul\libc.a(lib_a-locale.o) (__ascii_wctomb)
c:/intelfpga_lite/20.1/nios2eds/bin/gnu/h-x86_64-mingw32/bin/../lib/gcc/nios2-elf/10.1.1/../../../../../H-x86_64-mingw32/nios2-elf/lib/mno-hw-mul\libc.a(lib_a-abort.o)
                              c:/intelfpga_lite/20.1/nios2eds/bin/gnu/h-x86_64-mingw32/bin/../lib/gcc/nios2-elf/10.1.1/../../../../../H-x86_64-mingw32/nios2-elf/lib/mno-hw-mul\libc.a(lib_a-assert.o) (abort)
c:/intelfpga_lite/20.1/nios2eds/bin/gnu/h-x86_64-mingw32/bin/../lib/gcc/nios2-elf/10.1.1/../../../../../H-x86_64-mingw32/nios2-elf/lib/mno-hw-mul\libc.a(lib_a-ctype_.o)
                              c:/intelfpga_lite/20.1/nios2eds/bin/gnu/h-x86_64-mingw32/bin/../lib/gcc/nios2-elf/10.1.1/../../../../../H-x86_64-mingw32/nios2-elf/lib/mno-hw-mul\libc.a(lib_a-locale.o) (_ctype_b)
c:/intelfpga_lite/20.1/nios2eds/bin/gnu/h-x86_64-mingw32/bin/../lib/gcc/nios2-elf/10.1.1/../../../../../H-x86_64-mingw32/nios2-elf/lib/mno-hw-mul\libc.a(lib_a-signal.o)
                              c:/intelfpga_lite/20.1/nios2eds/bin/gnu/h-x86_64-mingw32/bin/../lib/gcc/nios2-elf/10.1.1/../../../../../H-x86_64-mingw32/nios2-elf/lib/mno-hw-mul\libc.a(lib_a-abort.o) (raise)
c:/intelfpga_lite/20.1/nios2eds/bin/gnu/h-x86_64-mingw32/bin/../lib/gcc/nios2-elf/10.1.1/../../../../../H-x86_64-mingw32/nios2-elf/lib/mno-hw-mul\libc.a(lib_a-signalr.o)
                              c:/intelfpga_lite/20.1/nios2eds/bin/gnu/h-x86_64-mingw32/bin/../lib/gcc/nios2-elf/10.1.1/../../../../../H-x86_64-mingw32/nios2-elf/lib/mno-hw-mul\libc.a(lib_a-signal.o) (_kill_r)
c:/intelfpga_lite/20.1/nios2eds/bin/gnu/h-x86_64-mingw32/bin/../lib/gcc/nios2-elf/10.1.1/mno-hw-mul\libgcc.a(_muldi3.o)
                              c:/intelfpga_lite/20.1/nios2eds/bin/gnu/h-x86_64-mingw32/bin/../lib/gcc/nios2-elf/10.1.1/../../../../../H-x86_64-mingw32/nios2-elf/lib/mno-hw-mul\libc.a(lib_a-rand.o) (__muldi3)
c:/intelfpga_lite/20.1/nios2eds/bin/gnu/h-x86_64-mingw32/bin/../lib/gcc/nios2-elf/10.1.1/mno-hw-mul\libgcc.a(_udivdi3.o)
                              c:/intelfpga_lite/20.1/nios2eds/bin/gnu/h-x86_64-mingw32/bin/../lib/gcc/nios2-elf/10.1.1/../../../../../H-x86_64-mingw32/nios2-elf/lib/mno-hw-mul\libc.a(lib_a-vfprintf.o) (__udivdi3)
c:/intelfpga_lite/20.1/nios2eds/bin/gnu/h-x86_64-mingw32/bin/../lib/gcc/nios2-elf/10.1.1/mno-hw-mul\libgcc.a(_umoddi3.o)
                              c:/intelfpga_lite/20.1/nios2eds/bin/gnu/h-x86_64-mingw32/bin/../lib/gcc/nios2-elf/10.1.1/../../../../../H-x86_64-mingw32/nios2-elf/lib/mno-hw-mul\libc.a(lib_a-vfprintf.o) (__umoddi3)
c:/intelfpga_lite/20.1/nios2eds/bin/gnu/h-x86_64-mingw32/bin/../lib/gcc/nios2-elf/10.1.1/mno-hw-mul\libgcc.a(adddf3.o)
                              c:/intelfpga_lite/20.1/nios2eds/bin/gnu/h-x86_64-mingw32/bin/../lib/gcc/nios2-elf/10.1.1/../../../../../H-x86_64-mingw32/nios2-elf/lib/mno-hw-mul\libc.a(lib_a-dtoa.o) (__adddf3)
c:/intelfpga_lite/20.1/nios2eds/bin/gnu/h-x86_64-mingw32/bin/../lib/gcc/nios2-elf/10.1.1/mno-hw-mul\libgcc.a(divdf3.o)
                              c:/intelfpga_lite/20.1/nios2eds/bin/gnu/h-x86_64-mingw32/bin/../lib/gcc/nios2-elf/10.1.1/../../../../../H-x86_64-mingw32/nios2-elf/lib/mno-hw-mul\libc.a(lib_a-dtoa.o) (__divdf3)
c:/intelfpga_lite/20.1/nios2eds/bin/gnu/h-x86_64-mingw32/bin/../lib/gcc/nios2-elf/10.1.1/mno-hw-mul\libgcc.a(eqdf2.o)
                              c:/intelfpga_lite/20.1/nios2eds/bin/gnu/h-x86_64-mingw32/bin/../lib/gcc/nios2-elf/10.1.1/../../../../../H-x86_64-mingw32/nios2-elf/lib/mno-hw-mul\libc.a(lib_a-vfprintf.o) (__eqdf2)
c:/intelfpga_lite/20.1/nios2eds/bin/gnu/h-x86_64-mingw32/bin/../lib/gcc/nios2-elf/10.1.1/mno-hw-mul\libgcc.a(gedf2.o)
                              c:/intelfpga_lite/20.1/nios2eds/bin/gnu/h-x86_64-mingw32/bin/../lib/gcc/nios2-elf/10.1.1/../../../../../H-x86_64-mingw32/nios2-elf/lib/mno-hw-mul\libc.a(lib_a-dtoa.o) (__gtdf2)
c:/intelfpga_lite/20.1/nios2eds/bin/gnu/h-x86_64-mingw32/bin/../lib/gcc/nios2-elf/10.1.1/mno-hw-mul\libgcc.a(ledf2.o)
                              c:/intelfpga_lite/20.1/nios2eds/bin/gnu/h-x86_64-mingw32/bin/../lib/gcc/nios2-elf/10.1.1/../../../../../H-x86_64-mingw32/nios2-elf/lib/mno-hw-mul\libc.a(lib_a-vfprintf.o) (__ledf2)
c:/intelfpga_lite/20.1/nios2eds/bin/gnu/h-x86_64-mingw32/bin/../lib/gcc/nios2-elf/10.1.1/mno-hw-mul\libgcc.a(muldf3.o)
                              c:/intelfpga_lite/20.1/nios2eds/bin/gnu/h-x86_64-mingw32/bin/../lib/gcc/nios2-elf/10.1.1/../../../../../H-x86_64-mingw32/nios2-elf/lib/mno-hw-mul\libc.a(lib_a-dtoa.o) (__muldf3)
c:/intelfpga_lite/20.1/nios2eds/bin/gnu/h-x86_64-mingw32/bin/../lib/gcc/nios2-elf/10.1.1/mno-hw-mul\libgcc.a(subdf3.o)
                              c:/intelfpga_lite/20.1/nios2eds/bin/gnu/h-x86_64-mingw32/bin/../lib/gcc/nios2-elf/10.1.1/../../../../../H-x86_64-mingw32/nios2-elf/lib/mno-hw-mul\libc.a(lib_a-dtoa.o) (__subdf3)
c:/intelfpga_lite/20.1/nios2eds/bin/gnu/h-x86_64-mingw32/bin/../lib/gcc/nios2-elf/10.1.1/mno-hw-mul\libgcc.a(unorddf2.o)
                              c:/intelfpga_lite/20.1/nios2eds/bin/gnu/h-x86_64-mingw32/bin/../lib/gcc/nios2-elf/10.1.1/../../../../../H-x86_64-mingw32/nios2-elf/lib/mno-hw-mul\libc.a(lib_a-vfprintf.o) (__unorddf2)
c:/intelfpga_lite/20.1/nios2eds/bin/gnu/h-x86_64-mingw32/bin/../lib/gcc/nios2-elf/10.1.1/mno-hw-mul\libgcc.a(fixdfsi.o)
                              c:/intelfpga_lite/20.1/nios2eds/bin/gnu/h-x86_64-mingw32/bin/../lib/gcc/nios2-elf/10.1.1/../../../../../H-x86_64-mingw32/nios2-elf/lib/mno-hw-mul\libc.a(lib_a-dtoa.o) (__fixdfsi)
c:/intelfpga_lite/20.1/nios2eds/bin/gnu/h-x86_64-mingw32/bin/../lib/gcc/nios2-elf/10.1.1/mno-hw-mul\libgcc.a(floatsidf.o)
                              c:/intelfpga_lite/20.1/nios2eds/bin/gnu/h-x86_64-mingw32/bin/../lib/gcc/nios2-elf/10.1.1/../../../../../H-x86_64-mingw32/nios2-elf/lib/mno-hw-mul\libc.a(lib_a-dtoa.o) (__floatsidf)
c:/intelfpga_lite/20.1/nios2eds/bin/gnu/h-x86_64-mingw32/bin/../lib/gcc/nios2-elf/10.1.1/mno-hw-mul\libgcc.a(floatunsidf.o)
                              c:/intelfpga_lite/20.1/nios2eds/bin/gnu/h-x86_64-mingw32/bin/../lib/gcc/nios2-elf/10.1.1/../../../../../H-x86_64-mingw32/nios2-elf/lib/mno-hw-mul\libc.a(lib_a-dtoa.o) (__floatunsidf)
c:/intelfpga_lite/20.1/nios2eds/bin/gnu/h-x86_64-mingw32/bin/../lib/gcc/nios2-elf/10.1.1/mno-hw-mul\libgcc.a(_clz.o)
                              c:/intelfpga_lite/20.1/nios2eds/bin/gnu/h-x86_64-mingw32/bin/../lib/gcc/nios2-elf/10.1.1/mno-hw-mul\libgcc.a(_udivdi3.o) (__clz_tab)
c:/intelfpga_lite/20.1/nios2eds/bin/gnu/h-x86_64-mingw32/bin/../lib/gcc/nios2-elf/10.1.1/mno-hw-mul\libgcc.a(_clzsi2.o)
                              c:/intelfpga_lite/20.1/nios2eds/bin/gnu/h-x86_64-mingw32/bin/../lib/gcc/nios2-elf/10.1.1/mno-hw-mul\libgcc.a(adddf3.o) (__clzsi2)
c:/fpga/DE1-SoC_v.5.1.3_HWrevF.revG_SystemCD/Demonstrations/FPGA/DE1_SoC_SDRAM_Nios_Test/software/sdram_nios_test_v2_bsp/\libhal_bsp.a(alt_close.o)
                              c:/intelfpga_lite/20.1/nios2eds/bin/gnu/h-x86_64-mingw32/bin/../lib/gcc/nios2-elf/10.1.1/../../../../../H-x86_64-mingw32/nios2-elf/lib/mno-hw-mul\libc.a(closer.o) (close)
c:/fpga/DE1-SoC_v.5.1.3_HWrevF.revG_SystemCD/Demonstrations/FPGA/DE1_SoC_SDRAM_Nios_Test/software/sdram_nios_test_v2_bsp/\libhal_bsp.a(alt_dcache_flush_all.o)
                              obj/default/mem_verify.o (alt_dcache_flush_all)
c:/fpga/DE1-SoC_v.5.1.3_HWrevF.revG_SystemCD/Demonstrations/FPGA/DE1_SoC_SDRAM_Nios_Test/software/sdram_nios_test_v2_bsp/\libhal_bsp.a(alt_dev.o)
                              c:/fpga/DE1-SoC_v.5.1.3_HWrevF.revG_SystemCD/Demonstrations/FPGA/DE1_SoC_SDRAM_Nios_Test/software/sdram_nios_test_v2_bsp/\libhal_bsp.a(alt_close.o) (alt_fd_list)
c:/fpga/DE1-SoC_v.5.1.3_HWrevF.revG_SystemCD/Demonstrations/FPGA/DE1_SoC_SDRAM_Nios_Test/software/sdram_nios_test_v2_bsp/\libhal_bsp.a(alt_errno.o)
                              c:/fpga/DE1-SoC_v.5.1.3_HWrevF.revG_SystemCD/Demonstrations/FPGA/DE1_SoC_SDRAM_Nios_Test/software/sdram_nios_test_v2_bsp/\libhal_bsp.a(alt_close.o) (alt_errno)
c:/fpga/DE1-SoC_v.5.1.3_HWrevF.revG_SystemCD/Demonstrations/FPGA/DE1_SoC_SDRAM_Nios_Test/software/sdram_nios_test_v2_bsp/\libhal_bsp.a(alt_exit.o)
                              c:/intelfpga_lite/20.1/nios2eds/bin/gnu/h-x86_64-mingw32/bin/../lib/gcc/nios2-elf/10.1.1/../../../../../H-x86_64-mingw32/nios2-elf/lib/mno-hw-mul\libc.a(lib_a-abort.o) (_exit)
c:/fpga/DE1-SoC_v.5.1.3_HWrevF.revG_SystemCD/Demonstrations/FPGA/DE1_SoC_SDRAM_Nios_Test/software/sdram_nios_test_v2_bsp/\libhal_bsp.a(alt_fstat.o)
                              c:/intelfpga_lite/20.1/nios2eds/bin/gnu/h-x86_64-mingw32/bin/../lib/gcc/nios2-elf/10.1.1/../../../../../H-x86_64-mingw32/nios2-elf/lib/mno-hw-mul\libc.a(lib_a-fstatr.o) (fstat)
c:/fpga/DE1-SoC_v.5.1.3_HWrevF.revG_SystemCD/Demonstrations/FPGA/DE1_SoC_SDRAM_Nios_Test/software/sdram_nios_test_v2_bsp/\libhal_bsp.a(alt_getpid.o)
                              c:/intelfpga_lite/20.1/nios2eds/bin/gnu/h-x86_64-mingw32/bin/../lib/gcc/nios2-elf/10.1.1/../../../../../H-x86_64-mingw32/nios2-elf/lib/mno-hw-mul\libc.a(lib_a-signalr.o) (getpid)
c:/fpga/DE1-SoC_v.5.1.3_HWrevF.revG_SystemCD/Demonstrations/FPGA/DE1_SoC_SDRAM_Nios_Test/software/sdram_nios_test_v2_bsp/\libhal_bsp.a(alt_isatty.o)
                              c:/intelfpga_lite/20.1/nios2eds/bin/gnu/h-x86_64-mingw32/bin/../lib/gcc/nios2-elf/10.1.1/../../../../../H-x86_64-mingw32/nios2-elf/lib/mno-hw-mul\libc.a(lib_a-isattyr.o) (isatty)
c:/fpga/DE1-SoC_v.5.1.3_HWrevF.revG_SystemCD/Demonstrations/FPGA/DE1_SoC_SDRAM_Nios_Test/software/sdram_nios_test_v2_bsp/\libhal_bsp.a(alt_kill.o)
                              c:/intelfpga_lite/20.1/nios2eds/bin/gnu/h-x86_64-mingw32/bin/../lib/gcc/nios2-elf/10.1.1/../../../../../H-x86_64-mingw32/nios2-elf/lib/mno-hw-mul\libc.a(lib_a-signalr.o) (kill)
c:/fpga/DE1-SoC_v.5.1.3_HWrevF.revG_SystemCD/Demonstrations/FPGA/DE1_SoC_SDRAM_Nios_Test/software/sdram_nios_test_v2_bsp/\libhal_bsp.a(alt_load.o)
                              c:/fpga/DE1-SoC_v.5.1.3_HWrevF.revG_SystemCD/Demonstrations/FPGA/DE1_SoC_SDRAM_Nios_Test/software/sdram_nios_test_v2_bsp//obj/HAL/src/crt0.o (alt_load)
c:/fpga/DE1-SoC_v.5.1.3_HWrevF.revG_SystemCD/Demonstrations/FPGA/DE1_SoC_SDRAM_Nios_Test/software/sdram_nios_test_v2_bsp/\libhal_bsp.a(alt_lseek.o)
                              c:/intelfpga_lite/20.1/nios2eds/bin/gnu/h-x86_64-mingw32/bin/../lib/gcc/nios2-elf/10.1.1/../../../../../H-x86_64-mingw32/nios2-elf/lib/mno-hw-mul\libc.a(lib_a-lseekr.o) (lseek)
c:/fpga/DE1-SoC_v.5.1.3_HWrevF.revG_SystemCD/Demonstrations/FPGA/DE1_SoC_SDRAM_Nios_Test/software/sdram_nios_test_v2_bsp/\libhal_bsp.a(alt_main.o)
                              c:/fpga/DE1-SoC_v.5.1.3_HWrevF.revG_SystemCD/Demonstrations/FPGA/DE1_SoC_SDRAM_Nios_Test/software/sdram_nios_test_v2_bsp//obj/HAL/src/crt0.o (alt_main)
c:/fpga/DE1-SoC_v.5.1.3_HWrevF.revG_SystemCD/Demonstrations/FPGA/DE1_SoC_SDRAM_Nios_Test/software/sdram_nios_test_v2_bsp/\libhal_bsp.a(alt_malloc_lock.o)
                              c:/intelfpga_lite/20.1/nios2eds/bin/gnu/h-x86_64-mingw32/bin/../lib/gcc/nios2-elf/10.1.1/../../../../../H-x86_64-mingw32/nios2-elf/lib/mno-hw-mul\libc.a(lib_a-freer.o) (__malloc_lock)
c:/fpga/DE1-SoC_v.5.1.3_HWrevF.revG_SystemCD/Demonstrations/FPGA/DE1_SoC_SDRAM_Nios_Test/software/sdram_nios_test_v2_bsp/\libhal_bsp.a(alt_read.o)
                              c:/intelfpga_lite/20.1/nios2eds/bin/gnu/h-x86_64-mingw32/bin/../lib/gcc/nios2-elf/10.1.1/../../../../../H-x86_64-mingw32/nios2-elf/lib/mno-hw-mul\libc.a(lib_a-readr.o) (read)
c:/fpga/DE1-SoC_v.5.1.3_HWrevF.revG_SystemCD/Demonstrations/FPGA/DE1_SoC_SDRAM_Nios_Test/software/sdram_nios_test_v2_bsp/\libhal_bsp.a(alt_release_fd.o)
                              c:/fpga/DE1-SoC_v.5.1.3_HWrevF.revG_SystemCD/Demonstrations/FPGA/DE1_SoC_SDRAM_Nios_Test/software/sdram_nios_test_v2_bsp/\libhal_bsp.a(alt_close.o) (alt_release_fd)
c:/fpga/DE1-SoC_v.5.1.3_HWrevF.revG_SystemCD/Demonstrations/FPGA/DE1_SoC_SDRAM_Nios_Test/software/sdram_nios_test_v2_bsp/\libhal_bsp.a(alt_sbrk.o)
                              c:/intelfpga_lite/20.1/nios2eds/bin/gnu/h-x86_64-mingw32/bin/../lib/gcc/nios2-elf/10.1.1/../../../../../H-x86_64-mingw32/nios2-elf/lib/mno-hw-mul\libc.a(lib_a-sbrkr.o) (sbrk)
c:/fpga/DE1-SoC_v.5.1.3_HWrevF.revG_SystemCD/Demonstrations/FPGA/DE1_SoC_SDRAM_Nios_Test/software/sdram_nios_test_v2_bsp/\libhal_bsp.a(alt_tick.o)
                              obj/default/mem_verify.o (_alt_nticks)
c:/fpga/DE1-SoC_v.5.1.3_HWrevF.revG_SystemCD/Demonstrations/FPGA/DE1_SoC_SDRAM_Nios_Test/software/sdram_nios_test_v2_bsp/\libhal_bsp.a(alt_usleep.o)
                              obj/default/mem_verify.o (usleep)
c:/fpga/DE1-SoC_v.5.1.3_HWrevF.revG_SystemCD/Demonstrations/FPGA/DE1_SoC_SDRAM_Nios_Test/software/sdram_nios_test_v2_bsp/\libhal_bsp.a(alt_write.o)
                              c:/intelfpga_lite/20.1/nios2eds/bin/gnu/h-x86_64-mingw32/bin/../lib/gcc/nios2-elf/10.1.1/../../../../../H-x86_64-mingw32/nios2-elf/lib/mno-hw-mul\libc.a(lib_a-writer.o) (write)
c:/fpga/DE1-SoC_v.5.1.3_HWrevF.revG_SystemCD/Demonstrations/FPGA/DE1_SoC_SDRAM_Nios_Test/software/sdram_nios_test_v2_bsp/\libhal_bsp.a(alt_sys_init.o)
                              c:/fpga/DE1-SoC_v.5.1.3_HWrevF.revG_SystemCD/Demonstrations/FPGA/DE1_SoC_SDRAM_Nios_Test/software/sdram_nios_test_v2_bsp/\libhal_bsp.a(alt_main.o) (alt_irq_init)
c:/fpga/DE1-SoC_v.5.1.3_HWrevF.revG_SystemCD/Demonstrations/FPGA/DE1_SoC_SDRAM_Nios_Test/software/sdram_nios_test_v2_bsp/\libhal_bsp.a(altera_avalon_jtag_uart_fd.o)
                              c:/fpga/DE1-SoC_v.5.1.3_HWrevF.revG_SystemCD/Demonstrations/FPGA/DE1_SoC_SDRAM_Nios_Test/software/sdram_nios_test_v2_bsp/\libhal_bsp.a(alt_sys_init.o) (altera_avalon_jtag_uart_read_fd)
c:/fpga/DE1-SoC_v.5.1.3_HWrevF.revG_SystemCD/Demonstrations/FPGA/DE1_SoC_SDRAM_Nios_Test/software/sdram_nios_test_v2_bsp/\libhal_bsp.a(altera_avalon_jtag_uart_init.o)
                              c:/fpga/DE1-SoC_v.5.1.3_HWrevF.revG_SystemCD/Demonstrations/FPGA/DE1_SoC_SDRAM_Nios_Test/software/sdram_nios_test_v2_bsp/\libhal_bsp.a(alt_sys_init.o) (altera_avalon_jtag_uart_init)
c:/fpga/DE1-SoC_v.5.1.3_HWrevF.revG_SystemCD/Demonstrations/FPGA/DE1_SoC_SDRAM_Nios_Test/software/sdram_nios_test_v2_bsp/\libhal_bsp.a(altera_avalon_jtag_uart_ioctl.o)
                              c:/fpga/DE1-SoC_v.5.1.3_HWrevF.revG_SystemCD/Demonstrations/FPGA/DE1_SoC_SDRAM_Nios_Test/software/sdram_nios_test_v2_bsp/\libhal_bsp.a(altera_avalon_jtag_uart_fd.o) (altera_avalon_jtag_uart_ioctl)
c:/fpga/DE1-SoC_v.5.1.3_HWrevF.revG_SystemCD/Demonstrations/FPGA/DE1_SoC_SDRAM_Nios_Test/software/sdram_nios_test_v2_bsp/\libhal_bsp.a(altera_avalon_jtag_uart_read.o)
                              c:/fpga/DE1-SoC_v.5.1.3_HWrevF.revG_SystemCD/Demonstrations/FPGA/DE1_SoC_SDRAM_Nios_Test/software/sdram_nios_test_v2_bsp/\libhal_bsp.a(altera_avalon_jtag_uart_fd.o) (altera_avalon_jtag_uart_read)
c:/fpga/DE1-SoC_v.5.1.3_HWrevF.revG_SystemCD/Demonstrations/FPGA/DE1_SoC_SDRAM_Nios_Test/software/sdram_nios_test_v2_bsp/\libhal_bsp.a(altera_avalon_jtag_uart_write.o)
                              c:/fpga/DE1-SoC_v.5.1.3_HWrevF.revG_SystemCD/Demonstrations/FPGA/DE1_SoC_SDRAM_Nios_Test/software/sdram_nios_test_v2_bsp/\libhal_bsp.a(altera_avalon_jtag_uart_fd.o) (altera_avalon_jtag_uart_write)
c:/fpga/DE1-SoC_v.5.1.3_HWrevF.revG_SystemCD/Demonstrations/FPGA/DE1_SoC_SDRAM_Nios_Test/software/sdram_nios_test_v2_bsp/\libhal_bsp.a(altera_avalon_timer_sc.o)
                              c:/fpga/DE1-SoC_v.5.1.3_HWrevF.revG_SystemCD/Demonstrations/FPGA/DE1_SoC_SDRAM_Nios_Test/software/sdram_nios_test_v2_bsp/\libhal_bsp.a(alt_sys_init.o) (alt_avalon_timer_sc_init)
c:/fpga/DE1-SoC_v.5.1.3_HWrevF.revG_SystemCD/Demonstrations/FPGA/DE1_SoC_SDRAM_Nios_Test/software/sdram_nios_test_v2_bsp/\libhal_bsp.a(alt_alarm_start.o)
                              c:/fpga/DE1-SoC_v.5.1.3_HWrevF.revG_SystemCD/Demonstrations/FPGA/DE1_SoC_SDRAM_Nios_Test/software/sdram_nios_test_v2_bsp/\libhal_bsp.a(altera_avalon_jtag_uart_init.o) (alt_alarm_start)
c:/fpga/DE1-SoC_v.5.1.3_HWrevF.revG_SystemCD/Demonstrations/FPGA/DE1_SoC_SDRAM_Nios_Test/software/sdram_nios_test_v2_bsp/\libhal_bsp.a(alt_busy_sleep.o)
                              c:/fpga/DE1-SoC_v.5.1.3_HWrevF.revG_SystemCD/Demonstrations/FPGA/DE1_SoC_SDRAM_Nios_Test/software/sdram_nios_test_v2_bsp/\libhal_bsp.a(alt_usleep.o) (alt_busy_sleep)
c:/fpga/DE1-SoC_v.5.1.3_HWrevF.revG_SystemCD/Demonstrations/FPGA/DE1_SoC_SDRAM_Nios_Test/software/sdram_nios_test_v2_bsp/\libhal_bsp.a(alt_dev_llist_insert.o)
                              c:/fpga/DE1-SoC_v.5.1.3_HWrevF.revG_SystemCD/Demonstrations/FPGA/DE1_SoC_SDRAM_Nios_Test/software/sdram_nios_test_v2_bsp/\libhal_bsp.a(alt_sys_init.o) (alt_dev_llist_insert)
c:/fpga/DE1-SoC_v.5.1.3_HWrevF.revG_SystemCD/Demonstrations/FPGA/DE1_SoC_SDRAM_Nios_Test/software/sdram_nios_test_v2_bsp/\libhal_bsp.a(alt_do_ctors.o)
                              c:/fpga/DE1-SoC_v.5.1.3_HWrevF.revG_SystemCD/Demonstrations/FPGA/DE1_SoC_SDRAM_Nios_Test/software/sdram_nios_test_v2_bsp/\libhal_bsp.a(alt_main.o) (_do_ctors)
c:/fpga/DE1-SoC_v.5.1.3_HWrevF.revG_SystemCD/Demonstrations/FPGA/DE1_SoC_SDRAM_Nios_Test/software/sdram_nios_test_v2_bsp/\libhal_bsp.a(alt_do_dtors.o)
                              c:/fpga/DE1-SoC_v.5.1.3_HWrevF.revG_SystemCD/Demonstrations/FPGA/DE1_SoC_SDRAM_Nios_Test/software/sdram_nios_test_v2_bsp/\libhal_bsp.a(alt_main.o) (_do_dtors)
c:/fpga/DE1-SoC_v.5.1.3_HWrevF.revG_SystemCD/Demonstrations/FPGA/DE1_SoC_SDRAM_Nios_Test/software/sdram_nios_test_v2_bsp/\libhal_bsp.a(alt_icache_flush_all.o)
                              c:/fpga/DE1-SoC_v.5.1.3_HWrevF.revG_SystemCD/Demonstrations/FPGA/DE1_SoC_SDRAM_Nios_Test/software/sdram_nios_test_v2_bsp/\libhal_bsp.a(alt_load.o) (alt_icache_flush_all)
c:/fpga/DE1-SoC_v.5.1.3_HWrevF.revG_SystemCD/Demonstrations/FPGA/DE1_SoC_SDRAM_Nios_Test/software/sdram_nios_test_v2_bsp/\libhal_bsp.a(alt_iic.o)
                              c:/fpga/DE1-SoC_v.5.1.3_HWrevF.revG_SystemCD/Demonstrations/FPGA/DE1_SoC_SDRAM_Nios_Test/software/sdram_nios_test_v2_bsp/\libhal_bsp.a(altera_avalon_jtag_uart_init.o) (alt_ic_isr_register)
c:/fpga/DE1-SoC_v.5.1.3_HWrevF.revG_SystemCD/Demonstrations/FPGA/DE1_SoC_SDRAM_Nios_Test/software/sdram_nios_test_v2_bsp/\libhal_bsp.a(alt_iic_isr_register.o)
                              c:/fpga/DE1-SoC_v.5.1.3_HWrevF.revG_SystemCD/Demonstrations/FPGA/DE1_SoC_SDRAM_Nios_Test/software/sdram_nios_test_v2_bsp/\libhal_bsp.a(alt_iic.o) (alt_iic_isr_register)
c:/fpga/DE1-SoC_v.5.1.3_HWrevF.revG_SystemCD/Demonstrations/FPGA/DE1_SoC_SDRAM_Nios_Test/software/sdram_nios_test_v2_bsp/\libhal_bsp.a(alt_io_redirect.o)
                              c:/fpga/DE1-SoC_v.5.1.3_HWrevF.revG_SystemCD/Demonstrations/FPGA/DE1_SoC_SDRAM_Nios_Test/software/sdram_nios_test_v2_bsp/\libhal_bsp.a(alt_main.o) (alt_io_redirect)
c:/fpga/DE1-SoC_v.5.1.3_HWrevF.revG_SystemCD/Demonstrations/FPGA/DE1_SoC_SDRAM_Nios_Test/software/sdram_nios_test_v2_bsp/\libhal_bsp.a(alt_irq_entry.o)
                              c:/fpga/DE1-SoC_v.5.1.3_HWrevF.revG_SystemCD/Demonstrations/FPGA/DE1_SoC_SDRAM_Nios_Test/software/sdram_nios_test_v2_bsp/\libhal_bsp.a(alt_iic_isr_register.o) (alt_irq_entry)
c:/fpga/DE1-SoC_v.5.1.3_HWrevF.revG_SystemCD/Demonstrations/FPGA/DE1_SoC_SDRAM_Nios_Test/software/sdram_nios_test_v2_bsp/\libhal_bsp.a(alt_irq_handler.o)
                              c:/fpga/DE1-SoC_v.5.1.3_HWrevF.revG_SystemCD/Demonstrations/FPGA/DE1_SoC_SDRAM_Nios_Test/software/sdram_nios_test_v2_bsp/\libhal_bsp.a(alt_iic_isr_register.o) (alt_irq)
c:/fpga/DE1-SoC_v.5.1.3_HWrevF.revG_SystemCD/Demonstrations/FPGA/DE1_SoC_SDRAM_Nios_Test/software/sdram_nios_test_v2_bsp/\libhal_bsp.a(alt_irq_vars.o)
                              c:/fpga/DE1-SoC_v.5.1.3_HWrevF.revG_SystemCD/Demonstrations/FPGA/DE1_SoC_SDRAM_Nios_Test/software/sdram_nios_test_v2_bsp/\libhal_bsp.a(alt_iic.o) (alt_irq_active)
c:/fpga/DE1-SoC_v.5.1.3_HWrevF.revG_SystemCD/Demonstrations/FPGA/DE1_SoC_SDRAM_Nios_Test/software/sdram_nios_test_v2_bsp/\libhal_bsp.a(alt_open.o)
                              c:/fpga/DE1-SoC_v.5.1.3_HWrevF.revG_SystemCD/Demonstrations/FPGA/DE1_SoC_SDRAM_Nios_Test/software/sdram_nios_test_v2_bsp/\libhal_bsp.a(alt_io_redirect.o) (open)
c:/fpga/DE1-SoC_v.5.1.3_HWrevF.revG_SystemCD/Demonstrations/FPGA/DE1_SoC_SDRAM_Nios_Test/software/sdram_nios_test_v2_bsp/\libhal_bsp.a(altera_nios2_gen2_irq.o)
                              c:/fpga/DE1-SoC_v.5.1.3_HWrevF.revG_SystemCD/Demonstrations/FPGA/DE1_SoC_SDRAM_Nios_Test/software/sdram_nios_test_v2_bsp/\libhal_bsp.a(alt_sys_init.o) (altera_nios2_gen2_irq_init)
c:/fpga/DE1-SoC_v.5.1.3_HWrevF.revG_SystemCD/Demonstrations/FPGA/DE1_SoC_SDRAM_Nios_Test/software/sdram_nios_test_v2_bsp/\libhal_bsp.a(alt_exception_entry.o)
                              c:/fpga/DE1-SoC_v.5.1.3_HWrevF.revG_SystemCD/Demonstrations/FPGA/DE1_SoC_SDRAM_Nios_Test/software/sdram_nios_test_v2_bsp/\libhal_bsp.a(alt_irq_entry.o) (alt_exception)
c:/fpga/DE1-SoC_v.5.1.3_HWrevF.revG_SystemCD/Demonstrations/FPGA/DE1_SoC_SDRAM_Nios_Test/software/sdram_nios_test_v2_bsp/\libhal_bsp.a(alt_find_dev.o)
                              c:/fpga/DE1-SoC_v.5.1.3_HWrevF.revG_SystemCD/Demonstrations/FPGA/DE1_SoC_SDRAM_Nios_Test/software/sdram_nios_test_v2_bsp/\libhal_bsp.a(alt_open.o) (alt_find_dev)
c:/fpga/DE1-SoC_v.5.1.3_HWrevF.revG_SystemCD/Demonstrations/FPGA/DE1_SoC_SDRAM_Nios_Test/software/sdram_nios_test_v2_bsp/\libhal_bsp.a(alt_find_file.o)
                              c:/fpga/DE1-SoC_v.5.1.3_HWrevF.revG_SystemCD/Demonstrations/FPGA/DE1_SoC_SDRAM_Nios_Test/software/sdram_nios_test_v2_bsp/\libhal_bsp.a(alt_open.o) (alt_find_file)
c:/fpga/DE1-SoC_v.5.1.3_HWrevF.revG_SystemCD/Demonstrations/FPGA/DE1_SoC_SDRAM_Nios_Test/software/sdram_nios_test_v2_bsp/\libhal_bsp.a(alt_get_fd.o)
                              c:/fpga/DE1-SoC_v.5.1.3_HWrevF.revG_SystemCD/Demonstrations/FPGA/DE1_SoC_SDRAM_Nios_Test/software/sdram_nios_test_v2_bsp/\libhal_bsp.a(alt_open.o) (alt_get_fd)
c:/fpga/DE1-SoC_v.5.1.3_HWrevF.revG_SystemCD/Demonstrations/FPGA/DE1_SoC_SDRAM_Nios_Test/software/sdram_nios_test_v2_bsp/\libhal_bsp.a(alt_instruction_exception_entry.o)
                              c:/fpga/DE1-SoC_v.5.1.3_HWrevF.revG_SystemCD/Demonstrations/FPGA/DE1_SoC_SDRAM_Nios_Test/software/sdram_nios_test_v2_bsp/\libhal_bsp.a(alt_exception_entry.o) (alt_instruction_exception_entry)
c:/intelfpga_lite/20.1/nios2eds/bin/gnu/h-x86_64-mingw32/bin/../lib/gcc/nios2-elf/10.1.1/../../../../../H-x86_64-mingw32/nios2-elf/lib/mno-hw-mul\libc.a(lib_a-atexit.o)
                              c:/fpga/DE1-SoC_v.5.1.3_HWrevF.revG_SystemCD/Demonstrations/FPGA/DE1_SoC_SDRAM_Nios_Test/software/sdram_nios_test_v2_bsp/\libhal_bsp.a(alt_main.o) (atexit)
c:/intelfpga_lite/20.1/nios2eds/bin/gnu/h-x86_64-mingw32/bin/../lib/gcc/nios2-elf/10.1.1/../../../../../H-x86_64-mingw32/nios2-elf/lib/mno-hw-mul\libc.a(lib_a-exit.o)
                              c:/fpga/DE1-SoC_v.5.1.3_HWrevF.revG_SystemCD/Demonstrations/FPGA/DE1_SoC_SDRAM_Nios_Test/software/sdram_nios_test_v2_bsp/\libhal_bsp.a(alt_main.o) (exit)
c:/intelfpga_lite/20.1/nios2eds/bin/gnu/h-x86_64-mingw32/bin/../lib/gcc/nios2-elf/10.1.1/../../../../../H-x86_64-mingw32/nios2-elf/lib/mno-hw-mul\libc.a(lib_a-memcmp.o)
                              c:/fpga/DE1-SoC_v.5.1.3_HWrevF.revG_SystemCD/Demonstrations/FPGA/DE1_SoC_SDRAM_Nios_Test/software/sdram_nios_test_v2_bsp/\libhal_bsp.a(alt_find_dev.o) (memcmp)
c:/intelfpga_lite/20.1/nios2eds/bin/gnu/h-x86_64-mingw32/bin/../lib/gcc/nios2-elf/10.1.1/../../../../../H-x86_64-mingw32/nios2-elf/lib/mno-hw-mul\libc.a(lib_a-__atexit.o)
                              c:/intelfpga_lite/20.1/nios2eds/bin/gnu/h-x86_64-mingw32/bin/../lib/gcc/nios2-elf/10.1.1/../../../../../H-x86_64-mingw32/nios2-elf/lib/mno-hw-mul\libc.a(lib_a-atexit.o) (__register_exitproc)
c:/intelfpga_lite/20.1/nios2eds/bin/gnu/h-x86_64-mingw32/bin/../lib/gcc/nios2-elf/10.1.1/../../../../../H-x86_64-mingw32/nios2-elf/lib/mno-hw-mul\libc.a(lib_a-__call_atexit.o)
                              c:/intelfpga_lite/20.1/nios2eds/bin/gnu/h-x86_64-mingw32/bin/../lib/gcc/nios2-elf/10.1.1/../../../../../H-x86_64-mingw32/nios2-elf/lib/mno-hw-mul\libc.a(lib_a-exit.o) (__call_exitprocs)

Memory Configuration

Name             Origin             Length             Attributes
sdram            0x0000000000000000 0x0000000004000000
reset            0x0000000004020000 0x0000000000000020
onchip_memory2   0x0000000004020020 0x000000000001f3e0
*default*        0x0000000000000000 0xffffffffffffffff

Linker script and memory map

LOAD c:/fpga/DE1-SoC_v.5.1.3_HWrevF.revG_SystemCD/Demonstrations/FPGA/DE1_SoC_SDRAM_Nios_Test/software/sdram_nios_test_v2_bsp//obj/HAL/src/crt0.o
LOAD obj/default/main.o
LOAD obj/default/mem_verify.o
LOAD c:/intelfpga_lite/20.1/nios2eds/bin/gnu/h-x86_64-mingw32/bin/../lib/gcc/nios2-elf/10.1.1/../../../../../H-x86_64-mingw32/nios2-elf/lib/mno-hw-mul\libstdc++.a
LOAD c:/intelfpga_lite/20.1/nios2eds/bin/gnu/h-x86_64-mingw32/bin/../lib/gcc/nios2-elf/10.1.1/../../../../../H-x86_64-mingw32/nios2-elf/lib/mno-hw-mul\libm.a
LOAD c:/intelfpga_lite/20.1/nios2eds/bin/gnu/h-x86_64-mingw32/bin/../lib/gcc/nios2-elf/10.1.1/mno-hw-mul\libgcc.a
START GROUP
LOAD c:/intelfpga_lite/20.1/nios2eds/bin/gnu/h-x86_64-mingw32/bin/../lib/gcc/nios2-elf/10.1.1/../../../../../H-x86_64-mingw32/nios2-elf/lib/mno-hw-mul\libc.a
LOAD c:/intelfpga_lite/20.1/nios2eds/bin/gnu/h-x86_64-mingw32/bin/../lib/gcc/nios2-elf/10.1.1/mno-hw-mul\libgcc.a
LOAD c:/fpga/DE1-SoC_v.5.1.3_HWrevF.revG_SystemCD/Demonstrations/FPGA/DE1_SoC_SDRAM_Nios_Test/software/sdram_nios_test_v2_bsp/\libhal_bsp.a
LOAD c:/intelfpga_lite/20.1/nios2eds/bin/gnu/h-x86_64-mingw32/bin/../lib/gcc/nios2-elf/10.1.1/../../../../../H-x86_64-mingw32/nios2-elf/lib/mno-hw-mul\libm.a
END GROUP
LOAD c:/intelfpga_lite/20.1/nios2eds/bin/gnu/h-x86_64-mingw32/bin/../lib/gcc/nios2-elf/10.1.1/mno-hw-mul\libgcc.a
                0x0000000000000000                __alt_mem_sdram = 0x0
                0x0000000004020000                __alt_mem_onchip_memory2 = 0x4020000

.entry          0x0000000004020000       0x20
 *(.entry)
 .entry         0x0000000004020000       0x20 c:/fpga/DE1-SoC_v.5.1.3_HWrevF.revG_SystemCD/Demonstrations/FPGA/DE1_SoC_SDRAM_Nios_Test/software/sdram_nios_test_v2_bsp//obj/HAL/src/crt0.o
                0x0000000004020000                __reset

.exceptions     0x0000000004020020      0x204
                0x0000000004020020                PROVIDE (__ram_exceptions_start = ABSOLUTE (.))
                0x0000000004020020                . = ALIGN (0x20)
 *(.irq)
 *(.exceptions.entry.label)
 .exceptions.entry.label
                0x0000000004020020        0x0 c:/fpga/DE1-SoC_v.5.1.3_HWrevF.revG_SystemCD/Demonstrations/FPGA/DE1_SoC_SDRAM_Nios_Test/software/sdram_nios_test_v2_bsp/\libhal_bsp.a(alt_irq_entry.o)
                0x0000000004020020                alt_irq_entry
 .exceptions.entry.label
                0x0000000004020020        0x0 c:/fpga/DE1-SoC_v.5.1.3_HWrevF.revG_SystemCD/Demonstrations/FPGA/DE1_SoC_SDRAM_Nios_Test/software/sdram_nios_test_v2_bsp/\libhal_bsp.a(alt_exception_entry.o)
                0x0000000004020020                alt_exception
 *(.exceptions.entry.user)
 *(.exceptions.entry.ecc_fatal)
 *(.exceptions.entry)
 .exceptions.entry
                0x0000000004020020       0x54 c:/fpga/DE1-SoC_v.5.1.3_HWrevF.revG_SystemCD/Demonstrations/FPGA/DE1_SoC_SDRAM_Nios_Test/software/sdram_nios_test_v2_bsp/\libhal_bsp.a(alt_exception_entry.o)
 *(.exceptions.irqtest.user)
 *(.exceptions.irqtest)
 .exceptions.irqtest
                0x0000000004020074       0x10 c:/fpga/DE1-SoC_v.5.1.3_HWrevF.revG_SystemCD/Demonstrations/FPGA/DE1_SoC_SDRAM_Nios_Test/software/sdram_nios_test_v2_bsp/\libhal_bsp.a(alt_irq_entry.o)
 *(.exceptions.irqhandler.user)
 *(.exceptions.irqhandler)
 .exceptions.irqhandler
                0x0000000004020084        0x4 c:/fpga/DE1-SoC_v.5.1.3_HWrevF.revG_SystemCD/Demonstrations/FPGA/DE1_SoC_SDRAM_Nios_Test/software/sdram_nios_test_v2_bsp/\libhal_bsp.a(alt_irq_entry.o)
 *(.exceptions.irqreturn.user)
 *(.exceptions.irqreturn)
 .exceptions.irqreturn
                0x0000000004020088        0x4 c:/fpga/DE1-SoC_v.5.1.3_HWrevF.revG_SystemCD/Demonstrations/FPGA/DE1_SoC_SDRAM_Nios_Test/software/sdram_nios_test_v2_bsp/\libhal_bsp.a(alt_irq_entry.o)
 *(.exceptions.notirq.label)
 .exceptions.notirq.label
                0x000000000402008c        0x0 c:/fpga/DE1-SoC_v.5.1.3_HWrevF.revG_SystemCD/Demonstrations/FPGA/DE1_SoC_SDRAM_Nios_Test/software/sdram_nios_test_v2_bsp/\libhal_bsp.a(alt_irq_entry.o)
 *(.exceptions.notirq.user)
 *(.exceptions.notirq)
 .exceptions.notirq
                0x000000000402008c        0x8 c:/fpga/DE1-SoC_v.5.1.3_HWrevF.revG_SystemCD/Demonstrations/FPGA/DE1_SoC_SDRAM_Nios_Test/software/sdram_nios_test_v2_bsp/\libhal_bsp.a(alt_exception_entry.o)
 *(.exceptions.soft.user)
 *(.exceptions.soft)
 *(.exceptions.unknown.user)
 *(.exceptions.unknown)
 .exceptions.unknown
                0x0000000004020094       0x14 c:/fpga/DE1-SoC_v.5.1.3_HWrevF.revG_SystemCD/Demonstrations/FPGA/DE1_SoC_SDRAM_Nios_Test/software/sdram_nios_test_v2_bsp/\libhal_bsp.a(alt_exception_entry.o)
 *(.exceptions.exit.label)
 .exceptions.exit.label
                0x00000000040200a8        0x0 c:/fpga/DE1-SoC_v.5.1.3_HWrevF.revG_SystemCD/Demonstrations/FPGA/DE1_SoC_SDRAM_Nios_Test/software/sdram_nios_test_v2_bsp/\libhal_bsp.a(alt_irq_entry.o)
 .exceptions.exit.label
                0x00000000040200a8        0x0 c:/fpga/DE1-SoC_v.5.1.3_HWrevF.revG_SystemCD/Demonstrations/FPGA/DE1_SoC_SDRAM_Nios_Test/software/sdram_nios_test_v2_bsp/\libhal_bsp.a(alt_exception_entry.o)
 *(.exceptions.exit.user)
 *(.exceptions.exit)
 .exceptions.exit
                0x00000000040200a8       0x54 c:/fpga/DE1-SoC_v.5.1.3_HWrevF.revG_SystemCD/Demonstrations/FPGA/DE1_SoC_SDRAM_Nios_Test/software/sdram_nios_test_v2_bsp/\libhal_bsp.a(alt_exception_entry.o)
 *(.exceptions)
 .exceptions    0x00000000040200fc       0xc8 c:/fpga/DE1-SoC_v.5.1.3_HWrevF.revG_SystemCD/Demonstrations/FPGA/DE1_SoC_SDRAM_Nios_Test/software/sdram_nios_test_v2_bsp/\libhal_bsp.a(alt_irq_handler.o)
                0x00000000040200fc                alt_irq_handler
 .exceptions    0x00000000040201c4       0x60 c:/fpga/DE1-SoC_v.5.1.3_HWrevF.revG_SystemCD/Demonstrations/FPGA/DE1_SoC_SDRAM_Nios_Test/software/sdram_nios_test_v2_bsp/\libhal_bsp.a(alt_instruction_exception_entry.o)
                0x00000000040201c4                alt_instruction_exception_entry
                0x0000000004020224                PROVIDE (__ram_exceptions_end = ABSOLUTE (.))
                0x0000000004020020                PROVIDE (__flash_exceptions_start = LOADADDR (.exceptions))

.text           0x0000000004020224    0x10778
                [!provide]                        PROVIDE (stext = ABSOLUTE (.))
 *(.interp)
 *(.hash)
 *(.dynsym)
 *(.dynstr)
 *(.gnu.version)
 *(.gnu.version_d)
 *(.gnu.version_r)
 *(.rel.init)
 *(.rela.init)
 *(.rel.text .rel.text.* .rel.gnu.linkonce.t.*)
 *(.rela.text .rela.text.* .rela.gnu.linkonce.t.*)
 *(.rel.fini)
 *(.rela.fini)
 *(.rel.rodata .rel.rodata.* .rel.gnu.linkonce.r.*)
 *(.rela.rodata .rela.rodata.* .rela.gnu.linkonce.r.*)
 *(.rel.data .rel.data.* .rel.gnu.linkonce.d.*)
 *(.rela.data .rela.data.* .rela.gnu.linkonce.d.*)
 *(.rel.tdata .rel.tdata.* .rel.gnu.linkonce.td.*)
 *(.rela.tdata .rela.tdata.* .rela.gnu.linkonce.td.*)
 *(.rel.tbss .rel.tbss.* .rel.gnu.linkonce.tb.*)
 *(.rela.tbss .rela.tbss.* .rela.gnu.linkonce.tb.*)
 *(.rel.ctors)
 *(.rela.ctors)
 *(.rel.dtors)
 *(.rela.dtors)
 *(.rel.got)
 *(.rela.got)
 *(.rel.sdata .rel.sdata.* .rel.gnu.linkonce.s.*)
 *(.rela.sdata .rela.sdata.* .rela.gnu.linkonce.s.*)
 *(.rel.sbss .rel.sbss.* .rel.gnu.linkonce.sb.*)
 *(.rela.sbss .rela.sbss.* .rela.gnu.linkonce.sb.*)
 *(.rel.sdata2 .rel.sdata2.* .rel.gnu.linkonce.s2.*)
 *(.rela.sdata2 .rela.sdata2.* .rela.gnu.linkonce.s2.*)
 *(.rel.sbss2 .rel.sbss2.* .rel.gnu.linkonce.sb2.*)
 *(.rela.sbss2 .rela.sbss2.* .rela.gnu.linkonce.sb2.*)
 *(.rel.bss .rel.bss.* .rel.gnu.linkonce.b.*)
 *(.rela.bss .rela.bss.* .rela.gnu.linkonce.b.*)
 *(.rel.plt)
 *(.rela.plt)
 *(.rel.dyn)
 *(.init)
 *(.plt)
 *(.text .stub .text.* .gnu.linkonce.t.*)
 .text          0x0000000004020224       0x3c c:/fpga/DE1-SoC_v.5.1.3_HWrevF.revG_SystemCD/Demonstrations/FPGA/DE1_SoC_SDRAM_Nios_Test/software/sdram_nios_test_v2_bsp//obj/HAL/src/crt0.o
                0x0000000004020224                _start
 .text          0x0000000004020260      0x18c obj/default/main.o
                0x0000000004020260                main
 .text          0x00000000040203ec      0x680 obj/default/mem_verify.o
                0x00000000040203ec                TMEM_Verify
                0x000000000402085c                TMEM_QuickVerify
 .text          0x0000000004020a6c      0x1b4 c:/intelfpga_lite/20.1/nios2eds/bin/gnu/h-x86_64-mingw32/bin/../lib/gcc/nios2-elf/10.1.1/mno-hw-mul\libgcc.a(lib2-divmod.o)
                0x0000000004020a6c                __divsi3
                0x0000000004020aec                __modsi3
                0x0000000004020b60                __udivsi3
                0x0000000004020bc4                __umodsi3
 .text          0x0000000004020c20       0x28 c:/intelfpga_lite/20.1/nios2eds/bin/gnu/h-x86_64-mingw32/bin/../lib/gcc/nios2-elf/10.1.1/mno-hw-mul\libgcc.a(lib2-mul.o)
                0x0000000004020c20                __mulsi3
 .text          0x0000000004020c48        0x0 c:/intelfpga_lite/20.1/nios2eds/bin/gnu/h-x86_64-mingw32/bin/../lib/gcc/nios2-elf/10.1.1/../../../../../H-x86_64-mingw32/nios2-elf/lib/mno-hw-mul\libc.a(lib_a-memcpy.o)
 .text.memcpy   0x0000000004020c48      0x100 c:/intelfpga_lite/20.1/nios2eds/bin/gnu/h-x86_64-mingw32/bin/../lib/gcc/nios2-elf/10.1.1/../../../../../H-x86_64-mingw32/nios2-elf/lib/mno-hw-mul\libc.a(lib_a-memcpy.o)
                0x0000000004020c48                memcpy
 .text          0x0000000004020d48        0x0 c:/intelfpga_lite/20.1/nios2eds/bin/gnu/h-x86_64-mingw32/bin/../lib/gcc/nios2-elf/10.1.1/../../../../../H-x86_64-mingw32/nios2-elf/lib/mno-hw-mul\libc.a(lib_a-printf.o)
 .text._printf_r
                0x0000000004020d48       0x30 c:/intelfpga_lite/20.1/nios2eds/bin/gnu/h-x86_64-mingw32/bin/../lib/gcc/nios2-elf/10.1.1/../../../../../H-x86_64-mingw32/nios2-elf/lib/mno-hw-mul\libc.a(lib_a-printf.o)
                0x0000000004020d48                _printf_r
 .text.printf   0x0000000004020d78       0x38 c:/intelfpga_lite/20.1/nios2eds/bin/gnu/h-x86_64-mingw32/bin/../lib/gcc/nios2-elf/10.1.1/../../../../../H-x86_64-mingw32/nios2-elf/lib/mno-hw-mul\libc.a(lib_a-printf.o)
                0x0000000004020d78                printf
 .text          0x0000000004020db0        0x0 c:/intelfpga_lite/20.1/nios2eds/bin/gnu/h-x86_64-mingw32/bin/../lib/gcc/nios2-elf/10.1.1/../../../../../H-x86_64-mingw32/nios2-elf/lib/mno-hw-mul\libc.a(lib_a-putchar.o)
 .text._putchar_r
                0x0000000004020db0        0x8 c:/intelfpga_lite/20.1/nios2eds/bin/gnu/h-x86_64-mingw32/bin/../lib/gcc/nios2-elf/10.1.1/../../../../../H-x86_64-mingw32/nios2-elf/lib/mno-hw-mul\libc.a(lib_a-putchar.o)
                0x0000000004020db0                _putchar_r
 .text.putchar  0x0000000004020db8       0x18 c:/intelfpga_lite/20.1/nios2eds/bin/gnu/h-x86_64-mingw32/bin/../lib/gcc/nios2-elf/10.1.1/../../../../../H-x86_64-mingw32/nios2-elf/lib/mno-hw-mul\libc.a(lib_a-putchar.o)
                0x0000000004020db8                putchar
 .text          0x0000000004020dd0        0x0 c:/intelfpga_lite/20.1/nios2eds/bin/gnu/h-x86_64-mingw32/bin/../lib/gcc/nios2-elf/10.1.1/../../../../../H-x86_64-mingw32/nios2-elf/lib/mno-hw-mul\libc.a(lib_a-puts.o)
 .text._puts_r  0x0000000004020dd0       0xcc c:/intelfpga_lite/20.1/nios2eds/bin/gnu/h-x86_64-mingw32/bin/../lib/gcc/nios2-elf/10.1.1/../../../../../H-x86_64-mingw32/nios2-elf/lib/mno-hw-mul\libc.a(lib_a-puts.o)
                0x0000000004020dd0                _puts_r
 .text.puts     0x0000000004020e9c       0x10 c:/intelfpga_lite/20.1/nios2eds/bin/gnu/h-x86_64-mingw32/bin/../lib/gcc/nios2-elf/10.1.1/../../../../../H-x86_64-mingw32/nios2-elf/lib/mno-hw-mul\libc.a(lib_a-puts.o)
                0x0000000004020e9c                puts
 .text          0x0000000004020eac        0x0 c:/intelfpga_lite/20.1/nios2eds/bin/gnu/h-x86_64-mingw32/bin/../lib/gcc/nios2-elf/10.1.1/../../../../../H-x86_64-mingw32/nios2-elf/lib/mno-hw-mul\libc.a(lib_a-rand.o)
 .text.srand    0x0000000004020eac       0x14 c:/intelfpga_lite/20.1/nios2eds/bin/gnu/h-x86_64-mingw32/bin/../lib/gcc/nios2-elf/10.1.1/../../../../../H-x86_64-mingw32/nios2-elf/lib/mno-hw-mul\libc.a(lib_a-rand.o)
                0x0000000004020eac                srand
 .text.rand     0x0000000004020ec0       0x60 c:/intelfpga_lite/20.1/nios2eds/bin/gnu/h-x86_64-mingw32/bin/../lib/gcc/nios2-elf/10.1.1/../../../../../H-x86_64-mingw32/nios2-elf/lib/mno-hw-mul\libc.a(lib_a-rand.o)
                0x0000000004020ec0                rand
 .text          0x0000000004020f20        0x0 c:/intelfpga_lite/20.1/nios2eds/bin/gnu/h-x86_64-mingw32/bin/../lib/gcc/nios2-elf/10.1.1/../../../../../H-x86_64-mingw32/nios2-elf/lib/mno-hw-mul\libc.a(lib_a-strlen.o)
 .text.strlen   0x0000000004020f20       0x98 c:/intelfpga_lite/20.1/nios2eds/bin/gnu/h-x86_64-mingw32/bin/../lib/gcc/nios2-elf/10.1.1/../../../../../H-x86_64-mingw32/nios2-elf/lib/mno-hw-mul\libc.a(lib_a-strlen.o)
                0x0000000004020f20                strlen
 .text          0x0000000004020fb8        0x0 c:/intelfpga_lite/20.1/nios2eds/bin/gnu/h-x86_64-mingw32/bin/../lib/gcc/nios2-elf/10.1.1/../../../../../H-x86_64-mingw32/nios2-elf/lib/mno-hw-mul\libc.a(lib_a-vfprintf.o)
 .text.___vfprintf_internal_r
                0x0000000004020fb8     0x2104 c:/intelfpga_lite/20.1/nios2eds/bin/gnu/h-x86_64-mingw32/bin/../lib/gcc/nios2-elf/10.1.1/../../../../../H-x86_64-mingw32/nios2-elf/lib/mno-hw-mul\libc.a(lib_a-vfprintf.o)
                0x0000000004020fb8                ___vfprintf_internal_r
 .text.__vfprintf_internal
                0x00000000040230bc       0x1c c:/intelfpga_lite/20.1/nios2eds/bin/gnu/h-x86_64-mingw32/bin/../lib/gcc/nios2-elf/10.1.1/../../../../../H-x86_64-mingw32/nios2-elf/lib/mno-hw-mul\libc.a(lib_a-vfprintf.o)
                0x00000000040230bc                __vfprintf_internal
 .text.__sbprintf
                0x00000000040230d8       0xc0 c:/intelfpga_lite/20.1/nios2eds/bin/gnu/h-x86_64-mingw32/bin/../lib/gcc/nios2-elf/10.1.1/../../../../../H-x86_64-mingw32/nios2-elf/lib/mno-hw-mul\libc.a(lib_a-vfprintf.o)
 .text          0x0000000004023198        0x0 c:/intelfpga_lite/20.1/nios2eds/bin/gnu/h-x86_64-mingw32/bin/../lib/gcc/nios2-elf/10.1.1/../../../../../H-x86_64-mingw32/nios2-elf/lib/mno-hw-mul\libc.a(lib_a-wsetup.o)
 .text.__swsetup_r
                0x0000000004023198      0x164 c:/intelfpga_lite/20.1/nios2eds/bin/gnu/h-x86_64-mingw32/bin/../lib/gcc/nios2-elf/10.1.1/../../../../../H-x86_64-mingw32/nios2-elf/lib/mno-hw-mul\libc.a(lib_a-wsetup.o)
                0x0000000004023198                __swsetup_r
 .text          0x00000000040232fc        0x0 c:/intelfpga_lite/20.1/nios2eds/bin/gnu/h-x86_64-mingw32/bin/../lib/gcc/nios2-elf/10.1.1/../../../../../H-x86_64-mingw32/nios2-elf/lib/mno-hw-mul\libc.a(lib_a-dtoa.o)
 .text.quorem   0x00000000040232fc      0x220 c:/intelfpga_lite/20.1/nios2eds/bin/gnu/h-x86_64-mingw32/bin/../lib/gcc/nios2-elf/10.1.1/../../../../../H-x86_64-mingw32/nios2-elf/lib/mno-hw-mul\libc.a(lib_a-dtoa.o)
 .text._dtoa_r  0x000000000402351c     0x1748 c:/intelfpga_lite/20.1/nios2eds/bin/gnu/h-x86_64-mingw32/bin/../lib/gcc/nios2-elf/10.1.1/../../../../../H-x86_64-mingw32/nios2-elf/lib/mno-hw-mul\libc.a(lib_a-dtoa.o)
                0x000000000402351c                _dtoa_r
 .text          0x0000000004024c64        0x0 c:/intelfpga_lite/20.1/nios2eds/bin/gnu/h-x86_64-mingw32/bin/../lib/gcc/nios2-elf/10.1.1/../../../../../H-x86_64-mingw32/nios2-elf/lib/mno-hw-mul\libc.a(lib_a-fflush.o)
 .text.__sflush_r
                0x0000000004024c64      0x228 c:/intelfpga_lite/20.1/nios2eds/bin/gnu/h-x86_64-mingw32/bin/../lib/gcc/nios2-elf/10.1.1/../../../../../H-x86_64-mingw32/nios2-elf/lib/mno-hw-mul\libc.a(lib_a-fflush.o)
                0x0000000004024c64                __sflush_r
 .text._fflush_r
                0x0000000004024e8c       0x60 c:/intelfpga_lite/20.1/nios2eds/bin/gnu/h-x86_64-mingw32/bin/../lib/gcc/nios2-elf/10.1.1/../../../../../H-x86_64-mingw32/nios2-elf/lib/mno-hw-mul\libc.a(lib_a-fflush.o)
                0x0000000004024e8c                _fflush_r
 .text.fflush   0x0000000004024eec       0x84 c:/intelfpga_lite/20.1/nios2eds/bin/gnu/h-x86_64-mingw32/bin/../lib/gcc/nios2-elf/10.1.1/../../../../../H-x86_64-mingw32/nios2-elf/lib/mno-hw-mul\libc.a(lib_a-fflush.o)
                0x0000000004024eec                fflush
 .text          0x0000000004024f70        0x0 c:/intelfpga_lite/20.1/nios2eds/bin/gnu/h-x86_64-mingw32/bin/../lib/gcc/nios2-elf/10.1.1/../../../../../H-x86_64-mingw32/nios2-elf/lib/mno-hw-mul\libc.a(lib_a-findfp.o)
 .text.__fp_lock
                0x0000000004024f70        0x8 c:/intelfpga_lite/20.1/nios2eds/bin/gnu/h-x86_64-mingw32/bin/../lib/gcc/nios2-elf/10.1.1/../../../../../H-x86_64-mingw32/nios2-elf/lib/mno-hw-mul\libc.a(lib_a-findfp.o)
 .text._cleanup_r
                0x0000000004024f78        0xc c:/intelfpga_lite/20.1/nios2eds/bin/gnu/h-x86_64-mingw32/bin/../lib/gcc/nios2-elf/10.1.1/../../../../../H-x86_64-mingw32/nios2-elf/lib/mno-hw-mul\libc.a(lib_a-findfp.o)
                0x0000000004024f78                _cleanup_r
 .text.__fp_unlock
                0x0000000004024f84        0x8 c:/intelfpga_lite/20.1/nios2eds/bin/gnu/h-x86_64-mingw32/bin/../lib/gcc/nios2-elf/10.1.1/../../../../../H-x86_64-mingw32/nios2-elf/lib/mno-hw-mul\libc.a(lib_a-findfp.o)
 .text.__sinit.part.0
                0x0000000004024f8c      0x168 c:/intelfpga_lite/20.1/nios2eds/bin/gnu/h-x86_64-mingw32/bin/../lib/gcc/nios2-elf/10.1.1/../../../../../H-x86_64-mingw32/nios2-elf/lib/mno-hw-mul\libc.a(lib_a-findfp.o)
 .text.__sfmoreglue
                0x00000000040250f4       0x78 c:/intelfpga_lite/20.1/nios2eds/bin/gnu/h-x86_64-mingw32/bin/../lib/gcc/nios2-elf/10.1.1/../../../../../H-x86_64-mingw32/nios2-elf/lib/mno-hw-mul\libc.a(lib_a-findfp.o)
                0x00000000040250f4                __sfmoreglue
 .text.__sfp    0x000000000402516c      0x154 c:/intelfpga_lite/20.1/nios2eds/bin/gnu/h-x86_64-mingw32/bin/../lib/gcc/nios2-elf/10.1.1/../../../../../H-x86_64-mingw32/nios2-elf/lib/mno-hw-mul\libc.a(lib_a-findfp.o)
                0x000000000402516c                __sfp
 .text._cleanup
                0x00000000040252c0       0x14 c:/intelfpga_lite/20.1/nios2eds/bin/gnu/h-x86_64-mingw32/bin/../lib/gcc/nios2-elf/10.1.1/../../../../../H-x86_64-mingw32/nios2-elf/lib/mno-hw-mul\libc.a(lib_a-findfp.o)
                0x00000000040252c0                _cleanup
 .text.__sinit  0x00000000040252d4       0x10 c:/intelfpga_lite/20.1/nios2eds/bin/gnu/h-x86_64-mingw32/bin/../lib/gcc/nios2-elf/10.1.1/../../../../../H-x86_64-mingw32/nios2-elf/lib/mno-hw-mul\libc.a(lib_a-findfp.o)
                0x00000000040252d4                __sinit
 .text.__sfp_lock_acquire
                0x00000000040252e4        0x4 c:/intelfpga_lite/20.1/nios2eds/bin/gnu/h-x86_64-mingw32/bin/../lib/gcc/nios2-elf/10.1.1/../../../../../H-x86_64-mingw32/nios2-elf/lib/mno-hw-mul\libc.a(lib_a-findfp.o)
                0x00000000040252e4                __sfp_lock_acquire
 .text.__sfp_lock_release
                0x00000000040252e8        0x4 c:/intelfpga_lite/20.1/nios2eds/bin/gnu/h-x86_64-mingw32/bin/../lib/gcc/nios2-elf/10.1.1/../../../../../H-x86_64-mingw32/nios2-elf/lib/mno-hw-mul\libc.a(lib_a-findfp.o)
                0x00000000040252e8                __sfp_lock_release
 .text.__sinit_lock_acquire
                0x00000000040252ec        0x4 c:/intelfpga_lite/20.1/nios2eds/bin/gnu/h-x86_64-mingw32/bin/../lib/gcc/nios2-elf/10.1.1/../../../../../H-x86_64-mingw32/nios2-elf/lib/mno-hw-mul\libc.a(lib_a-findfp.o)
                0x00000000040252ec                __sinit_lock_acquire
 .text.__sinit_lock_release
                0x00000000040252f0        0x4 c:/intelfpga_lite/20.1/nios2eds/bin/gnu/h-x86_64-mingw32/bin/../lib/gcc/nios2-elf/10.1.1/../../../../../H-x86_64-mingw32/nios2-elf/lib/mno-hw-mul\libc.a(lib_a-findfp.o)
                0x00000000040252f0                __sinit_lock_release
 .text.__fp_lock_all
                0x00000000040252f4       0x14 c:/intelfpga_lite/20.1/nios2eds/bin/gnu/h-x86_64-mingw32/bin/../lib/gcc/nios2-elf/10.1.1/../../../../../H-x86_64-mingw32/nios2-elf/lib/mno-hw-mul\libc.a(lib_a-findfp.o)
                0x00000000040252f4                __fp_lock_all
 .text.__fp_unlock_all
                0x0000000004025308       0x14 c:/intelfpga_lite/20.1/nios2eds/bin/gnu/h-x86_64-mingw32/bin/../lib/gcc/nios2-elf/10.1.1/../../../../../H-x86_64-mingw32/nios2-elf/lib/mno-hw-mul\libc.a(lib_a-findfp.o)
                0x0000000004025308                __fp_unlock_all
 .text          0x000000000402531c        0x0 c:/intelfpga_lite/20.1/nios2eds/bin/gnu/h-x86_64-mingw32/bin/../lib/gcc/nios2-elf/10.1.1/../../../../../H-x86_64-mingw32/nios2-elf/lib/mno-hw-mul\libc.a(lib_a-freer.o)
 .text._malloc_trim_r
                0x000000000402531c      0x11c c:/intelfpga_lite/20.1/nios2eds/bin/gnu/h-x86_64-mingw32/bin/../lib/gcc/nios2-elf/10.1.1/../../../../../H-x86_64-mingw32/nios2-elf/lib/mno-hw-mul\libc.a(lib_a-freer.o)
                0x000000000402531c                _malloc_trim_r
 .text._free_r  0x0000000004025438      0x2fc c:/intelfpga_lite/20.1/nios2eds/bin/gnu/h-x86_64-mingw32/bin/../lib/gcc/nios2-elf/10.1.1/../../../../../H-x86_64-mingw32/nios2-elf/lib/mno-hw-mul\libc.a(lib_a-freer.o)
                0x0000000004025438                _free_r
 .text          0x0000000004025734        0x0 c:/intelfpga_lite/20.1/nios2eds/bin/gnu/h-x86_64-mingw32/bin/../lib/gcc/nios2-elf/10.1.1/../../../../../H-x86_64-mingw32/nios2-elf/lib/mno-hw-mul\libc.a(lib_a-fvwrite.o)
 .text.__sfvwrite_r
                0x0000000004025734      0x4c8 c:/intelfpga_lite/20.1/nios2eds/bin/gnu/h-x86_64-mingw32/bin/../lib/gcc/nios2-elf/10.1.1/../../../../../H-x86_64-mingw32/nios2-elf/lib/mno-hw-mul\libc.a(lib_a-fvwrite.o)
                0x0000000004025734                __sfvwrite_r
 .text          0x0000000004025bfc        0x0 c:/intelfpga_lite/20.1/nios2eds/bin/gnu/h-x86_64-mingw32/bin/../lib/gcc/nios2-elf/10.1.1/../../../../../H-x86_64-mingw32/nios2-elf/lib/mno-hw-mul\libc.a(lib_a-fwalk.o)
 .text._fwalk   0x0000000004025bfc       0x98 c:/intelfpga_lite/20.1/nios2eds/bin/gnu/h-x86_64-mingw32/bin/../lib/gcc/nios2-elf/10.1.1/../../../../../H-x86_64-mingw32/nios2-elf/lib/mno-hw-mul\libc.a(lib_a-fwalk.o)
                0x0000000004025bfc                _fwalk
 .text._fwalk_reent
                0x0000000004025c94       0xa8 c:/intelfpga_lite/20.1/nios2eds/bin/gnu/h-x86_64-mingw32/bin/../lib/gcc/nios2-elf/10.1.1/../../../../../H-x86_64-mingw32/nios2-elf/lib/mno-hw-mul\libc.a(lib_a-fwalk.o)
                0x0000000004025c94                _fwalk_reent
 .text          0x0000000004025d3c        0x0 c:/intelfpga_lite/20.1/nios2eds/bin/gnu/h-x86_64-mingw32/bin/../lib/gcc/nios2-elf/10.1.1/../../../../../H-x86_64-mingw32/nios2-elf/lib/mno-hw-mul\libc.a(lib_a-impure.o)
 .text          0x0000000004025d3c        0x0 c:/intelfpga_lite/20.1/nios2eds/bin/gnu/h-x86_64-mingw32/bin/../lib/gcc/nios2-elf/10.1.1/../../../../../H-x86_64-mingw32/nios2-elf/lib/mno-hw-mul\libc.a(lib_a-localeconv.o)
 .text.__localeconv_l
                0x0000000004025d3c        0x8 c:/intelfpga_lite/20.1/nios2eds/bin/gnu/h-x86_64-mingw32/bin/../lib/gcc/nios2-elf/10.1.1/../../../../../H-x86_64-mingw32/nios2-elf/lib/mno-hw-mul\libc.a(lib_a-localeconv.o)
                0x0000000004025d3c                __localeconv_l
 .text._localeconv_r
                0x0000000004025d44        0xc c:/intelfpga_lite/20.1/nios2eds/bin/gnu/h-x86_64-mingw32/bin/../lib/gcc/nios2-elf/10.1.1/../../../../../H-x86_64-mingw32/nios2-elf/lib/mno-hw-mul\libc.a(lib_a-localeconv.o)
                0x0000000004025d44                _localeconv_r
 .text.localeconv
                0x0000000004025d50        0xc c:/intelfpga_lite/20.1/nios2eds/bin/gnu/h-x86_64-mingw32/bin/../lib/gcc/nios2-elf/10.1.1/../../../../../H-x86_64-mingw32/nios2-elf/lib/mno-hw-mul\libc.a(lib_a-localeconv.o)
                0x0000000004025d50                localeconv
 .text          0x0000000004025d5c        0x0 c:/intelfpga_lite/20.1/nios2eds/bin/gnu/h-x86_64-mingw32/bin/../lib/gcc/nios2-elf/10.1.1/../../../../../H-x86_64-mingw32/nios2-elf/lib/mno-hw-mul\libc.a(lib_a-makebuf.o)
 .text.__smakebuf_r
                0x0000000004025d5c      0x1b0 c:/intelfpga_lite/20.1/nios2eds/bin/gnu/h-x86_64-mingw32/bin/../lib/gcc/nios2-elf/10.1.1/../../../../../H-x86_64-mingw32/nios2-elf/lib/mno-hw-mul\libc.a(lib_a-makebuf.o)
                0x0000000004025d5c                __smakebuf_r
 .text.__swhatbuf_r
                0x0000000004025f0c       0x98 c:/intelfpga_lite/20.1/nios2eds/bin/gnu/h-x86_64-mingw32/bin/../lib/gcc/nios2-elf/10.1.1/../../../../../H-x86_64-mingw32/nios2-elf/lib/mno-hw-mul\libc.a(lib_a-makebuf.o)
                0x0000000004025f0c                __swhatbuf_r
 .text          0x0000000004025fa4        0x0 c:/intelfpga_lite/20.1/nios2eds/bin/gnu/h-x86_64-mingw32/bin/../lib/gcc/nios2-elf/10.1.1/../../../../../H-x86_64-mingw32/nios2-elf/lib/mno-hw-mul\libc.a(lib_a-mallocr.o)
 .text._malloc_r
                0x0000000004025fa4      0x7e0 c:/intelfpga_lite/20.1/nios2eds/bin/gnu/h-x86_64-mingw32/bin/../lib/gcc/nios2-elf/10.1.1/../../../../../H-x86_64-mingw32/nios2-elf/lib/mno-hw-mul\libc.a(lib_a-mallocr.o)
                0x0000000004025fa4                _malloc_r
 .text          0x0000000004026784        0x0 c:/intelfpga_lite/20.1/nios2eds/bin/gnu/h-x86_64-mingw32/bin/../lib/gcc/nios2-elf/10.1.1/../../../../../H-x86_64-mingw32/nios2-elf/lib/mno-hw-mul\libc.a(lib_a-memchr.o)
 .text.memchr   0x0000000004026784       0xd0 c:/intelfpga_lite/20.1/nios2eds/bin/gnu/h-x86_64-mingw32/bin/../lib/gcc/nios2-elf/10.1.1/../../../../../H-x86_64-mingw32/nios2-elf/lib/mno-hw-mul\libc.a(lib_a-memchr.o)
                0x0000000004026784                memchr
 .text          0x0000000004026854        0x0 c:/intelfpga_lite/20.1/nios2eds/bin/gnu/h-x86_64-mingw32/bin/../lib/gcc/nios2-elf/10.1.1/../../../../../H-x86_64-mingw32/nios2-elf/lib/mno-hw-mul\libc.a(lib_a-memmove.o)
 .text.memmove  0x0000000004026854      0x12c c:/intelfpga_lite/20.1/nios2eds/bin/gnu/h-x86_64-mingw32/bin/../lib/gcc/nios2-elf/10.1.1/../../../../../H-x86_64-mingw32/nios2-elf/lib/mno-hw-mul\libc.a(lib_a-memmove.o)
                0x0000000004026854                memmove
 .text          0x0000000004026980        0x0 c:/intelfpga_lite/20.1/nios2eds/bin/gnu/h-x86_64-mingw32/bin/../lib/gcc/nios2-elf/10.1.1/../../../../../H-x86_64-mingw32/nios2-elf/lib/mno-hw-mul\libc.a(lib_a-memset.o)
 .text.memset   0x0000000004026980       0xf0 c:/intelfpga_lite/20.1/nios2eds/bin/gnu/h-x86_64-mingw32/bin/../lib/gcc/nios2-elf/10.1.1/../../../../../H-x86_64-mingw32/nios2-elf/lib/mno-hw-mul\libc.a(lib_a-memset.o)
                0x0000000004026980                memset
 .text          0x0000000004026a70        0x0 c:/intelfpga_lite/20.1/nios2eds/bin/gnu/h-x86_64-mingw32/bin/../lib/gcc/nios2-elf/10.1.1/../../../../../H-x86_64-mingw32/nios2-elf/lib/mno-hw-mul\libc.a(lib_a-mprec.o)
 .text._Balloc  0x0000000004026a70       0xa4 c:/intelfpga_lite/20.1/nios2eds/bin/gnu/h-x86_64-mingw32/bin/../lib/gcc/nios2-elf/10.1.1/../../../../../H-x86_64-mingw32/nios2-elf/lib/mno-hw-mul\libc.a(lib_a-mprec.o)
                0x0000000004026a70                _Balloc
 .text._Bfree   0x0000000004026b14       0x24 c:/intelfpga_lite/20.1/nios2eds/bin/gnu/h-x86_64-mingw32/bin/../lib/gcc/nios2-elf/10.1.1/../../../../../H-x86_64-mingw32/nios2-elf/lib/mno-hw-mul\libc.a(lib_a-mprec.o)
                0x0000000004026b14                _Bfree
 .text.__multadd
                0x0000000004026b38      0x15c c:/intelfpga_lite/20.1/nios2eds/bin/gnu/h-x86_64-mingw32/bin/../lib/gcc/nios2-elf/10.1.1/../../../../../H-x86_64-mingw32/nios2-elf/lib/mno-hw-mul\libc.a(lib_a-mprec.o)
                0x0000000004026b38                __multadd
 .text.__s2b    0x0000000004026c94      0x138 c:/intelfpga_lite/20.1/nios2eds/bin/gnu/h-x86_64-mingw32/bin/../lib/gcc/nios2-elf/10.1.1/../../../../../H-x86_64-mingw32/nios2-elf/lib/mno-hw-mul\libc.a(lib_a-mprec.o)
                0x0000000004026c94                __s2b
 .text.__hi0bits
                0x0000000004026dcc       0x64 c:/intelfpga_lite/20.1/nios2eds/bin/gnu/h-x86_64-mingw32/bin/../lib/gcc/nios2-elf/10.1.1/../../../../../H-x86_64-mingw32/nios2-elf/lib/mno-hw-mul\libc.a(lib_a-mprec.o)
                0x0000000004026dcc                __hi0bits
 .text.__lo0bits
                0x0000000004026e30       0xb0 c:/intelfpga_lite/20.1/nios2eds/bin/gnu/h-x86_64-mingw32/bin/../lib/gcc/nios2-elf/10.1.1/../../../../../H-x86_64-mingw32/nios2-elf/lib/mno-hw-mul\libc.a(lib_a-mprec.o)
                0x0000000004026e30                __lo0bits
 .text.__i2b    0x0000000004026ee0       0xb0 c:/intelfpga_lite/20.1/nios2eds/bin/gnu/h-x86_64-mingw32/bin/../lib/gcc/nios2-elf/10.1.1/../../../../../H-x86_64-mingw32/nios2-elf/lib/mno-hw-mul\libc.a(lib_a-mprec.o)
                0x0000000004026ee0                __i2b
 .text.__multiply
                0x0000000004026f90      0x2c4 c:/intelfpga_lite/20.1/nios2eds/bin/gnu/h-x86_64-mingw32/bin/../lib/gcc/nios2-elf/10.1.1/../../../../../H-x86_64-mingw32/nios2-elf/lib/mno-hw-mul\libc.a(lib_a-mprec.o)
                0x0000000004026f90                __multiply
 .text.__pow5mult
                0x0000000004027254      0x148 c:/intelfpga_lite/20.1/nios2eds/bin/gnu/h-x86_64-mingw32/bin/../lib/gcc/nios2-elf/10.1.1/../../../../../H-x86_64-mingw32/nios2-elf/lib/mno-hw-mul\libc.a(lib_a-mprec.o)
                0x0000000004027254                __pow5mult
 .text.__lshift
                0x000000000402739c      0x188 c:/intelfpga_lite/20.1/nios2eds/bin/gnu/h-x86_64-mingw32/bin/../lib/gcc/nios2-elf/10.1.1/../../../../../H-x86_64-mingw32/nios2-elf/lib/mno-hw-mul\libc.a(lib_a-mprec.o)
                0x000000000402739c                __lshift
 .text.__mcmp   0x0000000004027524       0x58 c:/intelfpga_lite/20.1/nios2eds/bin/gnu/h-x86_64-mingw32/bin/../lib/gcc/nios2-elf/10.1.1/../../../../../H-x86_64-mingw32/nios2-elf/lib/mno-hw-mul\libc.a(lib_a-mprec.o)
                0x0000000004027524                __mcmp
 .text.__mdiff  0x000000000402757c      0x22c c:/intelfpga_lite/20.1/nios2eds/bin/gnu/h-x86_64-mingw32/bin/../lib/gcc/nios2-elf/10.1.1/../../../../../H-x86_64-mingw32/nios2-elf/lib/mno-hw-mul\libc.a(lib_a-mprec.o)
                0x000000000402757c                __mdiff
 .text.__ulp    0x00000000040277a8       0x5c c:/intelfpga_lite/20.1/nios2eds/bin/gnu/h-x86_64-mingw32/bin/../lib/gcc/nios2-elf/10.1.1/../../../../../H-x86_64-mingw32/nios2-elf/lib/mno-hw-mul\libc.a(lib_a-mprec.o)
                0x00000000040277a8                __ulp
 .text.__b2d    0x0000000004027804      0x108 c:/intelfpga_lite/20.1/nios2eds/bin/gnu/h-x86_64-mingw32/bin/../lib/gcc/nios2-elf/10.1.1/../../../../../H-x86_64-mingw32/nios2-elf/lib/mno-hw-mul\libc.a(lib_a-mprec.o)
                0x0000000004027804                __b2d
 .text.__d2b    0x000000000402790c      0x164 c:/intelfpga_lite/20.1/nios2eds/bin/gnu/h-x86_64-mingw32/bin/../lib/gcc/nios2-elf/10.1.1/../../../../../H-x86_64-mingw32/nios2-elf/lib/mno-hw-mul\libc.a(lib_a-mprec.o)
                0x000000000402790c                __d2b
 .text.__ratio  0x0000000004027a70       0xa4 c:/intelfpga_lite/20.1/nios2eds/bin/gnu/h-x86_64-mingw32/bin/../lib/gcc/nios2-elf/10.1.1/../../../../../H-x86_64-mingw32/nios2-elf/lib/mno-hw-mul\libc.a(lib_a-mprec.o)
                0x0000000004027a70                __ratio
 .text._mprec_log10
                0x0000000004027b14       0x70 c:/intelfpga_lite/20.1/nios2eds/bin/gnu/h-x86_64-mingw32/bin/../lib/gcc/nios2-elf/10.1.1/../../../../../H-x86_64-mingw32/nios2-elf/lib/mno-hw-mul\libc.a(lib_a-mprec.o)
                0x0000000004027b14                _mprec_log10
 .text.__copybits
                0x0000000004027b84       0x7c c:/intelfpga_lite/20.1/nios2eds/bin/gnu/h-x86_64-mingw32/bin/../lib/gcc/nios2-elf/10.1.1/../../../../../H-x86_64-mingw32/nios2-elf/lib/mno-hw-mul\libc.a(lib_a-mprec.o)
                0x0000000004027b84                __copybits
 .text.__any_on
                0x0000000004027c00       0x60 c:/intelfpga_lite/20.1/nios2eds/bin/gnu/h-x86_64-mingw32/bin/../lib/gcc/nios2-elf/10.1.1/../../../../../H-x86_64-mingw32/nios2-elf/lib/mno-hw-mul\libc.a(lib_a-mprec.o)
                0x0000000004027c00                __any_on
 .text          0x0000000004027c60        0x0 c:/intelfpga_lite/20.1/nios2eds/bin/gnu/h-x86_64-mingw32/bin/../lib/gcc/nios2-elf/10.1.1/../../../../../H-x86_64-mingw32/nios2-elf/lib/mno-hw-mul\libc.a(lib_a-putc.o)
 .text._putc_r  0x0000000004027c60       0xcc c:/intelfpga_lite/20.1/nios2eds/bin/gnu/h-x86_64-mingw32/bin/../lib/gcc/nios2-elf/10.1.1/../../../../../H-x86_64-mingw32/nios2-elf/lib/mno-hw-mul\libc.a(lib_a-putc.o)
                0x0000000004027c60                _putc_r
 .text.putc     0x0000000004027d2c       0xe0 c:/intelfpga_lite/20.1/nios2eds/bin/gnu/h-x86_64-mingw32/bin/../lib/gcc/nios2-elf/10.1.1/../../../../../H-x86_64-mingw32/nios2-elf/lib/mno-hw-mul\libc.a(lib_a-putc.o)
                0x0000000004027d2c                putc
 .text          0x0000000004027e0c        0x0 c:/intelfpga_lite/20.1/nios2eds/bin/gnu/h-x86_64-mingw32/bin/../lib/gcc/nios2-elf/10.1.1/../../../../../H-x86_64-mingw32/nios2-elf/lib/mno-hw-mul\libc.a(lib_a-reallocr.o)
 .text._realloc_r
                0x0000000004027e0c      0x564 c:/intelfpga_lite/20.1/nios2eds/bin/gnu/h-x86_64-mingw32/bin/../lib/gcc/nios2-elf/10.1.1/../../../../../H-x86_64-mingw32/nios2-elf/lib/mno-hw-mul\libc.a(lib_a-reallocr.o)
                0x0000000004027e0c                _realloc_r
 .text          0x0000000004028370        0x0 c:/intelfpga_lite/20.1/nios2eds/bin/gnu/h-x86_64-mingw32/bin/../lib/gcc/nios2-elf/10.1.1/../../../../../H-x86_64-mingw32/nios2-elf/lib/mno-hw-mul\libc.a(lib_a-sbrkr.o)
 .text._sbrk_r  0x0000000004028370       0x58 c:/intelfpga_lite/20.1/nios2eds/bin/gnu/h-x86_64-mingw32/bin/../lib/gcc/nios2-elf/10.1.1/../../../../../H-x86_64-mingw32/nios2-elf/lib/mno-hw-mul\libc.a(lib_a-sbrkr.o)
                0x0000000004028370                _sbrk_r
 .text          0x00000000040283c8        0x0 c:/intelfpga_lite/20.1/nios2eds/bin/gnu/h-x86_64-mingw32/bin/../lib/gcc/nios2-elf/10.1.1/../../../../../H-x86_64-mingw32/nios2-elf/lib/mno-hw-mul\libc.a(lib_a-stdio.o)
 .text.__sread  0x00000000040283c8       0x54 c:/intelfpga_lite/20.1/nios2eds/bin/gnu/h-x86_64-mingw32/bin/../lib/gcc/nios2-elf/10.1.1/../../../../../H-x86_64-mingw32/nios2-elf/lib/mno-hw-mul\libc.a(lib_a-stdio.o)
                0x00000000040283c8                __sread
 .text.__seofread
                0x000000000402841c        0x8 c:/intelfpga_lite/20.1/nios2eds/bin/gnu/h-x86_64-mingw32/bin/../lib/gcc/nios2-elf/10.1.1/../../../../../H-x86_64-mingw32/nios2-elf/lib/mno-hw-mul\libc.a(lib_a-stdio.o)
                0x000000000402841c                __seofread
 .text.__swrite
                0x0000000004028424       0x80 c:/intelfpga_lite/20.1/nios2eds/bin/gnu/h-x86_64-mingw32/bin/../lib/gcc/nios2-elf/10.1.1/../../../../../H-x86_64-mingw32/nios2-elf/lib/mno-hw-mul\libc.a(lib_a-stdio.o)
                0x0000000004028424                __swrite
 .text.__sseek  0x00000000040284a4       0x5c c:/intelfpga_lite/20.1/nios2eds/bin/gnu/h-x86_64-mingw32/bin/../lib/gcc/nios2-elf/10.1.1/../../../../../H-x86_64-mingw32/nios2-elf/lib/mno-hw-mul\libc.a(lib_a-stdio.o)
                0x00000000040284a4                __sseek
 .text.__sclose
                0x0000000004028500        0x8 c:/intelfpga_lite/20.1/nios2eds/bin/gnu/h-x86_64-mingw32/bin/../lib/gcc/nios2-elf/10.1.1/../../../../../H-x86_64-mingw32/nios2-elf/lib/mno-hw-mul\libc.a(lib_a-stdio.o)
                0x0000000004028500                __sclose
 .text          0x0000000004028508        0x0 c:/intelfpga_lite/20.1/nios2eds/bin/gnu/h-x86_64-mingw32/bin/../lib/gcc/nios2-elf/10.1.1/../../../../../H-x86_64-mingw32/nios2-elf/lib/mno-hw-mul\libc.a(lib_a-vfiprintf.o)
 .text.__sprint_r.part.0
                0x0000000004028508       0xf4 c:/intelfpga_lite/20.1/nios2eds/bin/gnu/h-x86_64-mingw32/bin/../lib/gcc/nios2-elf/10.1.1/../../../../../H-x86_64-mingw32/nios2-elf/lib/mno-hw-mul\libc.a(lib_a-vfiprintf.o)
 .text.__sprint_r
                0x00000000040285fc       0x18 c:/intelfpga_lite/20.1/nios2eds/bin/gnu/h-x86_64-mingw32/bin/../lib/gcc/nios2-elf/10.1.1/../../../../../H-x86_64-mingw32/nios2-elf/lib/mno-hw-mul\libc.a(lib_a-vfiprintf.o)
                0x00000000040285fc                __sprint_r
 .text.___vfiprintf_internal_r
                0x0000000004028614     0x1344 c:/intelfpga_lite/20.1/nios2eds/bin/gnu/h-x86_64-mingw32/bin/../lib/gcc/nios2-elf/10.1.1/../../../../../H-x86_64-mingw32/nios2-elf/lib/mno-hw-mul\libc.a(lib_a-vfiprintf.o)
                0x0000000004028614                ___vfiprintf_internal_r
 .text.__vfiprintf_internal
                0x0000000004029958       0x1c c:/intelfpga_lite/20.1/nios2eds/bin/gnu/h-x86_64-mingw32/bin/../lib/gcc/nios2-elf/10.1.1/../../../../../H-x86_64-mingw32/nios2-elf/lib/mno-hw-mul\libc.a(lib_a-vfiprintf.o)
                0x0000000004029958                __vfiprintf_internal
 .text.__sbprintf
                0x0000000004029974       0xc0 c:/intelfpga_lite/20.1/nios2eds/bin/gnu/h-x86_64-mingw32/bin/../lib/gcc/nios2-elf/10.1.1/../../../../../H-x86_64-mingw32/nios2-elf/lib/mno-hw-mul\libc.a(lib_a-vfiprintf.o)
 .text          0x0000000004029a34        0x0 c:/intelfpga_lite/20.1/nios2eds/bin/gnu/h-x86_64-mingw32/bin/../lib/gcc/nios2-elf/10.1.1/../../../../../H-x86_64-mingw32/nios2-elf/lib/mno-hw-mul\libc.a(lib_a-wbuf.o)
 .text.__swbuf_r
                0x0000000004029a34      0x148 c:/intelfpga_lite/20.1/nios2eds/bin/gnu/h-x86_64-mingw32/bin/../lib/gcc/nios2-elf/10.1.1/../../../../../H-x86_64-mingw32/nios2-elf/lib/mno-hw-mul\libc.a(lib_a-wbuf.o)
                0x0000000004029a34                __swbuf_r
 .text.__swbuf  0x0000000004029b7c       0x18 c:/intelfpga_lite/20.1/nios2eds/bin/gnu/h-x86_64-mingw32/bin/../lib/gcc/nios2-elf/10.1.1/../../../../../H-x86_64-mingw32/nios2-elf/lib/mno-hw-mul\libc.a(lib_a-wbuf.o)
                0x0000000004029b7c                __swbuf
 .text          0x0000000004029b94        0x0 c:/intelfpga_lite/20.1/nios2eds/bin/gnu/h-x86_64-mingw32/bin/../lib/gcc/nios2-elf/10.1.1/../../../../../H-x86_64-mingw32/nios2-elf/lib/mno-hw-mul\libc.a(lib_a-writer.o)
 .text._write_r
                0x0000000004029b94       0x64 c:/intelfpga_lite/20.1/nios2eds/bin/gnu/h-x86_64-mingw32/bin/../lib/gcc/nios2-elf/10.1.1/../../../../../H-x86_64-mingw32/nios2-elf/lib/mno-hw-mul\libc.a(lib_a-writer.o)
                0x0000000004029b94                _write_r
 .text          0x0000000004029bf8        0x0 c:/intelfpga_lite/20.1/nios2eds/bin/gnu/h-x86_64-mingw32/bin/../lib/gcc/nios2-elf/10.1.1/../../../../../H-x86_64-mingw32/nios2-elf/lib/mno-hw-mul\libc.a(closer.o)
 .text._close_r
                0x0000000004029bf8       0x58 c:/intelfpga_lite/20.1/nios2eds/bin/gnu/h-x86_64-mingw32/bin/../lib/gcc/nios2-elf/10.1.1/../../../../../H-x86_64-mingw32/nios2-elf/lib/mno-hw-mul\libc.a(closer.o)
                0x0000000004029bf8                _close_r
 .text          0x0000000004029c50        0x0 c:/intelfpga_lite/20.1/nios2eds/bin/gnu/h-x86_64-mingw32/bin/../lib/gcc/nios2-elf/10.1.1/../../../../../H-x86_64-mingw32/nios2-elf/lib/mno-hw-mul\libc.a(lib_a-assert.o)
 .text.__assert_func
                0x0000000004029c50       0x64 c:/intelfpga_lite/20.1/nios2eds/bin/gnu/h-x86_64-mingw32/bin/../lib/gcc/nios2-elf/10.1.1/../../../../../H-x86_64-mingw32/nios2-elf/lib/mno-hw-mul\libc.a(lib_a-assert.o)
                0x0000000004029c50                __assert_func
 .text.__assert
                0x0000000004029cb4       0x14 c:/intelfpga_lite/20.1/nios2eds/bin/gnu/h-x86_64-mingw32/bin/../lib/gcc/nios2-elf/10.1.1/../../../../../H-x86_64-mingw32/nios2-elf/lib/mno-hw-mul\libc.a(lib_a-assert.o)
                0x0000000004029cb4                __assert
 .text          0x0000000004029cc8        0x0 c:/intelfpga_lite/20.1/nios2eds/bin/gnu/h-x86_64-mingw32/bin/../lib/gcc/nios2-elf/10.1.1/../../../../../H-x86_64-mingw32/nios2-elf/lib/mno-hw-mul\libc.a(lib_a-callocr.o)
 .text._calloc_r
                0x0000000004029cc8       0xc4 c:/intelfpga_lite/20.1/nios2eds/bin/gnu/h-x86_64-mingw32/bin/../lib/gcc/nios2-elf/10.1.1/../../../../../H-x86_64-mingw32/nios2-elf/lib/mno-hw-mul\libc.a(lib_a-callocr.o)
                0x0000000004029cc8                _calloc_r
 .text          0x0000000004029d8c        0x0 c:/intelfpga_lite/20.1/nios2eds/bin/gnu/h-x86_64-mingw32/bin/../lib/gcc/nios2-elf/10.1.1/../../../../../H-x86_64-mingw32/nios2-elf/lib/mno-hw-mul\libc.a(lib_a-fclose.o)
 .text._fclose_r.part.0
                0x0000000004029d8c       0xc0 c:/intelfpga_lite/20.1/nios2eds/bin/gnu/h-x86_64-mingw32/bin/../lib/gcc/nios2-elf/10.1.1/../../../../../H-x86_64-mingw32/nios2-elf/lib/mno-hw-mul\libc.a(lib_a-fclose.o)
 .text._fclose_r
                0x0000000004029e4c       0x70 c:/intelfpga_lite/20.1/nios2eds/bin/gnu/h-x86_64-mingw32/bin/../lib/gcc/nios2-elf/10.1.1/../../../../../H-x86_64-mingw32/nios2-elf/lib/mno-hw-mul\libc.a(lib_a-fclose.o)
                0x0000000004029e4c                _fclose_r
 .text.fclose   0x0000000004029ebc       0x70 c:/intelfpga_lite/20.1/nios2eds/bin/gnu/h-x86_64-mingw32/bin/../lib/gcc/nios2-elf/10.1.1/../../../../../H-x86_64-mingw32/nios2-elf/lib/mno-hw-mul\libc.a(lib_a-fclose.o)
                0x0000000004029ebc                fclose
 .text          0x0000000004029f2c        0x0 c:/intelfpga_lite/20.1/nios2eds/bin/gnu/h-x86_64-mingw32/bin/../lib/gcc/nios2-elf/10.1.1/../../../../../H-x86_64-mingw32/nios2-elf/lib/mno-hw-mul\libc.a(lib_a-fiprintf.o)
 .text._fiprintf_r
                0x0000000004029f2c       0x20 c:/intelfpga_lite/20.1/nios2eds/bin/gnu/h-x86_64-mingw32/bin/../lib/gcc/nios2-elf/10.1.1/../../../../../H-x86_64-mingw32/nios2-elf/lib/mno-hw-mul\libc.a(lib_a-fiprintf.o)
                0x0000000004029f2c                _fiprintf_r
 .text.fiprintf
                0x0000000004029f4c       0x38 c:/intelfpga_lite/20.1/nios2eds/bin/gnu/h-x86_64-mingw32/bin/../lib/gcc/nios2-elf/10.1.1/../../../../../H-x86_64-mingw32/nios2-elf/lib/mno-hw-mul\libc.a(lib_a-fiprintf.o)
                0x0000000004029f4c                fiprintf
 .text          0x0000000004029f84        0x0 c:/intelfpga_lite/20.1/nios2eds/bin/gnu/h-x86_64-mingw32/bin/../lib/gcc/nios2-elf/10.1.1/../../../../../H-x86_64-mingw32/nios2-elf/lib/mno-hw-mul\libc.a(lib_a-fputwc.o)
 .text.__fputwc
                0x0000000004029f84      0x164 c:/intelfpga_lite/20.1/nios2eds/bin/gnu/h-x86_64-mingw32/bin/../lib/gcc/nios2-elf/10.1.1/../../../../../H-x86_64-mingw32/nios2-elf/lib/mno-hw-mul\libc.a(lib_a-fputwc.o)
                0x0000000004029f84                __fputwc
 .text._fputwc_r
                0x000000000402a0e8       0x24 c:/intelfpga_lite/20.1/nios2eds/bin/gnu/h-x86_64-mingw32/bin/../lib/gcc/nios2-elf/10.1.1/../../../../../H-x86_64-mingw32/nios2-elf/lib/mno-hw-mul\libc.a(lib_a-fputwc.o)
                0x000000000402a0e8                _fputwc_r
 .text.fputwc   0x000000000402a10c       0x78 c:/intelfpga_lite/20.1/nios2eds/bin/gnu/h-x86_64-mingw32/bin/../lib/gcc/nios2-elf/10.1.1/../../../../../H-x86_64-mingw32/nios2-elf/lib/mno-hw-mul\libc.a(lib_a-fputwc.o)
                0x000000000402a10c                fputwc
 .text          0x000000000402a184        0x0 c:/intelfpga_lite/20.1/nios2eds/bin/gnu/h-x86_64-mingw32/bin/../lib/gcc/nios2-elf/10.1.1/../../../../../H-x86_64-mingw32/nios2-elf/lib/mno-hw-mul\libc.a(lib_a-fstatr.o)
 .text._fstat_r
                0x000000000402a184       0x60 c:/intelfpga_lite/20.1/nios2eds/bin/gnu/h-x86_64-mingw32/bin/../lib/gcc/nios2-elf/10.1.1/../../../../../H-x86_64-mingw32/nios2-elf/lib/mno-hw-mul\libc.a(lib_a-fstatr.o)
                0x000000000402a184                _fstat_r
 .text          0x000000000402a1e4        0x0 c:/intelfpga_lite/20.1/nios2eds/bin/gnu/h-x86_64-mingw32/bin/../lib/gcc/nios2-elf/10.1.1/../../../../../H-x86_64-mingw32/nios2-elf/lib/mno-hw-mul\libc.a(lib_a-int_errno.o)
 .text          0x000000000402a1e4        0x0 c:/intelfpga_lite/20.1/nios2eds/bin/gnu/h-x86_64-mingw32/bin/../lib/gcc/nios2-elf/10.1.1/../../../../../H-x86_64-mingw32/nios2-elf/lib/mno-hw-mul\libc.a(lib_a-isattyr.o)
 .text._isatty_r
                0x000000000402a1e4       0x58 c:/intelfpga_lite/20.1/nios2eds/bin/gnu/h-x86_64-mingw32/bin/../lib/gcc/nios2-elf/10.1.1/../../../../../H-x86_64-mingw32/nios2-elf/lib/mno-hw-mul\libc.a(lib_a-isattyr.o)
                0x000000000402a1e4                _isatty_r
 .text          0x000000000402a23c        0x0 c:/intelfpga_lite/20.1/nios2eds/bin/gnu/h-x86_64-mingw32/bin/../lib/gcc/nios2-elf/10.1.1/../../../../../H-x86_64-mingw32/nios2-elf/lib/mno-hw-mul\libc.a(lib_a-locale.o)
 .text._setlocale_r
                0x000000000402a23c       0x74 c:/intelfpga_lite/20.1/nios2eds/bin/gnu/h-x86_64-mingw32/bin/../lib/gcc/nios2-elf/10.1.1/../../../../../H-x86_64-mingw32/nios2-elf/lib/mno-hw-mul\libc.a(lib_a-locale.o)
                0x000000000402a23c                _setlocale_r
 .text.__locale_mb_cur_max
                0x000000000402a2b0        0xc c:/intelfpga_lite/20.1/nios2eds/bin/gnu/h-x86_64-mingw32/bin/../lib/gcc/nios2-elf/10.1.1/../../../../../H-x86_64-mingw32/nios2-elf/lib/mno-hw-mul\libc.a(lib_a-locale.o)
                0x000000000402a2b0                __locale_mb_cur_max
 .text.setlocale
                0x000000000402a2bc       0x74 c:/intelfpga_lite/20.1/nios2eds/bin/gnu/h-x86_64-mingw32/bin/../lib/gcc/nios2-elf/10.1.1/../../../../../H-x86_64-mingw32/nios2-elf/lib/mno-hw-mul\libc.a(lib_a-locale.o)
                0x000000000402a2bc                setlocale
 .text          0x000000000402a330        0x0 c:/intelfpga_lite/20.1/nios2eds/bin/gnu/h-x86_64-mingw32/bin/../lib/gcc/nios2-elf/10.1.1/../../../../../H-x86_64-mingw32/nios2-elf/lib/mno-hw-mul\libc.a(lib_a-lseekr.o)
 .text._lseek_r
                0x000000000402a330       0x64 c:/intelfpga_lite/20.1/nios2eds/bin/gnu/h-x86_64-mingw32/bin/../lib/gcc/nios2-elf/10.1.1/../../../../../H-x86_64-mingw32/nios2-elf/lib/mno-hw-mul\libc.a(lib_a-lseekr.o)
                0x000000000402a330                _lseek_r
 .text          0x000000000402a394        0x0 c:/intelfpga_lite/20.1/nios2eds/bin/gnu/h-x86_64-mingw32/bin/../lib/gcc/nios2-elf/10.1.1/../../../../../H-x86_64-mingw32/nios2-elf/lib/mno-hw-mul\libc.a(lib_a-mbtowc_r.o)
 .text._mbtowc_r
                0x000000000402a394        0xc c:/intelfpga_lite/20.1/nios2eds/bin/gnu/h-x86_64-mingw32/bin/../lib/gcc/nios2-elf/10.1.1/../../../../../H-x86_64-mingw32/nios2-elf/lib/mno-hw-mul\libc.a(lib_a-mbtowc_r.o)
                0x000000000402a394                _mbtowc_r
 .text.__ascii_mbtowc
                0x000000000402a3a0       0x44 c:/intelfpga_lite/20.1/nios2eds/bin/gnu/h-x86_64-mingw32/bin/../lib/gcc/nios2-elf/10.1.1/../../../../../H-x86_64-mingw32/nios2-elf/lib/mno-hw-mul\libc.a(lib_a-mbtowc_r.o)
                0x000000000402a3a0                __ascii_mbtowc
 .text          0x000000000402a3e4        0x0 c:/intelfpga_lite/20.1/nios2eds/bin/gnu/h-x86_64-mingw32/bin/../lib/gcc/nios2-elf/10.1.1/../../../../../H-x86_64-mingw32/nios2-elf/lib/mno-hw-mul\libc.a(lib_a-readr.o)
 .text._read_r  0x000000000402a3e4       0x64 c:/intelfpga_lite/20.1/nios2eds/bin/gnu/h-x86_64-mingw32/bin/../lib/gcc/nios2-elf/10.1.1/../../../../../H-x86_64-mingw32/nios2-elf/lib/mno-hw-mul\libc.a(lib_a-readr.o)
                0x000000000402a3e4                _read_r
 .text          0x000000000402a448        0x0 c:/intelfpga_lite/20.1/nios2eds/bin/gnu/h-x86_64-mingw32/bin/../lib/gcc/nios2-elf/10.1.1/../../../../../H-x86_64-mingw32/nios2-elf/lib/mno-hw-mul\libc.a(lib_a-strcmp.o)
 .text.strcmp   0x000000000402a448       0xb8 c:/intelfpga_lite/20.1/nios2eds/bin/gnu/h-x86_64-mingw32/bin/../lib/gcc/nios2-elf/10.1.1/../../../../../H-x86_64-mingw32/nios2-elf/lib/mno-hw-mul\libc.a(lib_a-strcmp.o)
                0x000000000402a448                strcmp
 .text          0x000000000402a500        0x0 c:/intelfpga_lite/20.1/nios2eds/bin/gnu/h-x86_64-mingw32/bin/../lib/gcc/nios2-elf/10.1.1/../../../../../H-x86_64-mingw32/nios2-elf/lib/mno-hw-mul\libc.a(lib_a-vfiprintfr_1.o)
 .text._vfiprintf_r
                0x000000000402a500        0x4 c:/intelfpga_lite/20.1/nios2eds/bin/gnu/h-x86_64-mingw32/bin/../lib/gcc/nios2-elf/10.1.1/../../../../../H-x86_64-mingw32/nios2-elf/lib/mno-hw-mul\libc.a(lib_a-vfiprintfr_1.o)
                0x000000000402a500                _vfiprintf_r
 .text          0x000000000402a504        0x0 c:/intelfpga_lite/20.1/nios2eds/bin/gnu/h-x86_64-mingw32/bin/../lib/gcc/nios2-elf/10.1.1/../../../../../H-x86_64-mingw32/nios2-elf/lib/mno-hw-mul\libc.a(lib_a-wcrtomb.o)
 .text._wcrtomb_r
                0x000000000402a504       0x6c c:/intelfpga_lite/20.1/nios2eds/bin/gnu/h-x86_64-mingw32/bin/../lib/gcc/nios2-elf/10.1.1/../../../../../H-x86_64-mingw32/nios2-elf/lib/mno-hw-mul\libc.a(lib_a-wcrtomb.o)
                0x000000000402a504                _wcrtomb_r
 .text.wcrtomb  0x000000000402a570       0x88 c:/intelfpga_lite/20.1/nios2eds/bin/gnu/h-x86_64-mingw32/bin/../lib/gcc/nios2-elf/10.1.1/../../../../../H-x86_64-mingw32/nios2-elf/lib/mno-hw-mul\libc.a(lib_a-wcrtomb.o)
                0x000000000402a570                wcrtomb
 .text          0x000000000402a5f8        0x0 c:/intelfpga_lite/20.1/nios2eds/bin/gnu/h-x86_64-mingw32/bin/../lib/gcc/nios2-elf/10.1.1/../../../../../H-x86_64-mingw32/nios2-elf/lib/mno-hw-mul\libc.a(lib_a-wctomb_r.o)
 .text._wctomb_r
                0x000000000402a5f8        0xc c:/intelfpga_lite/20.1/nios2eds/bin/gnu/h-x86_64-mingw32/bin/../lib/gcc/nios2-elf/10.1.1/../../../../../H-x86_64-mingw32/nios2-elf/lib/mno-hw-mul\libc.a(lib_a-wctomb_r.o)
                0x000000000402a5f8                _wctomb_r
 .text.__ascii_wctomb
                0x000000000402a604       0x30 c:/intelfpga_lite/20.1/nios2eds/bin/gnu/h-x86_64-mingw32/bin/../lib/gcc/nios2-elf/10.1.1/../../../../../H-x86_64-mingw32/nios2-elf/lib/mno-hw-mul\libc.a(lib_a-wctomb_r.o)
                0x000000000402a604                __ascii_wctomb
 .text          0x000000000402a634        0x0 c:/intelfpga_lite/20.1/nios2eds/bin/gnu/h-x86_64-mingw32/bin/../lib/gcc/nios2-elf/10.1.1/../../../../../H-x86_64-mingw32/nios2-elf/lib/mno-hw-mul\libc.a(lib_a-abort.o)
 .text.unlikely.abort
                0x000000000402a634       0x18 c:/intelfpga_lite/20.1/nios2eds/bin/gnu/h-x86_64-mingw32/bin/../lib/gcc/nios2-elf/10.1.1/../../../../../H-x86_64-mingw32/nios2-elf/lib/mno-hw-mul\libc.a(lib_a-abort.o)
                0x000000000402a634                abort
 .text          0x000000000402a64c        0x0 c:/intelfpga_lite/20.1/nios2eds/bin/gnu/h-x86_64-mingw32/bin/../lib/gcc/nios2-elf/10.1.1/../../../../../H-x86_64-mingw32/nios2-elf/lib/mno-hw-mul\libc.a(lib_a-ctype_.o)
 .text          0x000000000402a64c        0x0 c:/intelfpga_lite/20.1/nios2eds/bin/gnu/h-x86_64-mingw32/bin/../lib/gcc/nios2-elf/10.1.1/../../../../../H-x86_64-mingw32/nios2-elf/lib/mno-hw-mul\libc.a(lib_a-signal.o)
 .text._init_signal_r
                0x000000000402a64c       0x5c c:/intelfpga_lite/20.1/nios2eds/bin/gnu/h-x86_64-mingw32/bin/../lib/gcc/nios2-elf/10.1.1/../../../../../H-x86_64-mingw32/nios2-elf/lib/mno-hw-mul\libc.a(lib_a-signal.o)
                0x000000000402a64c                _init_signal_r
 .text._signal_r
                0x000000000402a6a8       0x98 c:/intelfpga_lite/20.1/nios2eds/bin/gnu/h-x86_64-mingw32/bin/../lib/gcc/nios2-elf/10.1.1/../../../../../H-x86_64-mingw32/nios2-elf/lib/mno-hw-mul\libc.a(lib_a-signal.o)
                0x000000000402a6a8                _signal_r
 .text._raise_r
                0x000000000402a740       0xc4 c:/intelfpga_lite/20.1/nios2eds/bin/gnu/h-x86_64-mingw32/bin/../lib/gcc/nios2-elf/10.1.1/../../../../../H-x86_64-mingw32/nios2-elf/lib/mno-hw-mul\libc.a(lib_a-signal.o)
                0x000000000402a740                _raise_r
 .text.__sigtramp_r
                0x000000000402a804       0xbc c:/intelfpga_lite/20.1/nios2eds/bin/gnu/h-x86_64-mingw32/bin/../lib/gcc/nios2-elf/10.1.1/../../../../../H-x86_64-mingw32/nios2-elf/lib/mno-hw-mul\libc.a(lib_a-signal.o)
                0x000000000402a804                __sigtramp_r
 .text.raise    0x000000000402a8c0       0xbc c:/intelfpga_lite/20.1/nios2eds/bin/gnu/h-x86_64-mingw32/bin/../lib/gcc/nios2-elf/10.1.1/../../../../../H-x86_64-mingw32/nios2-elf/lib/mno-hw-mul\libc.a(lib_a-signal.o)
                0x000000000402a8c0                raise
 .text.signal   0x000000000402a97c       0xa0 c:/intelfpga_lite/20.1/nios2eds/bin/gnu/h-x86_64-mingw32/bin/../lib/gcc/nios2-elf/10.1.1/../../../../../H-x86_64-mingw32/nios2-elf/lib/mno-hw-mul\libc.a(lib_a-signal.o)
                0x000000000402a97c                signal
 .text._init_signal
                0x000000000402aa1c       0x60 c:/intelfpga_lite/20.1/nios2eds/bin/gnu/h-x86_64-mingw32/bin/../lib/gcc/nios2-elf/10.1.1/../../../../../H-x86_64-mingw32/nios2-elf/lib/mno-hw-mul\libc.a(lib_a-signal.o)
                0x000000000402aa1c                _init_signal
 .text.__sigtramp
                0x000000000402aa7c       0xbc c:/intelfpga_lite/20.1/nios2eds/bin/gnu/h-x86_64-mingw32/bin/../lib/gcc/nios2-elf/10.1.1/../../../../../H-x86_64-mingw32/nios2-elf/lib/mno-hw-mul\libc.a(lib_a-signal.o)
                0x000000000402aa7c                __sigtramp
 .text          0x000000000402ab38        0x0 c:/intelfpga_lite/20.1/nios2eds/bin/gnu/h-x86_64-mingw32/bin/../lib/gcc/nios2-elf/10.1.1/../../../../../H-x86_64-mingw32/nios2-elf/lib/mno-hw-mul\libc.a(lib_a-signalr.o)
 .text._kill_r  0x000000000402ab38       0x60 c:/intelfpga_lite/20.1/nios2eds/bin/gnu/h-x86_64-mingw32/bin/../lib/gcc/nios2-elf/10.1.1/../../../../../H-x86_64-mingw32/nios2-elf/lib/mno-hw-mul\libc.a(lib_a-signalr.o)
                0x000000000402ab38                _kill_r
 .text._getpid_r
                0x000000000402ab98        0x4 c:/intelfpga_lite/20.1/nios2eds/bin/gnu/h-x86_64-mingw32/bin/../lib/gcc/nios2-elf/10.1.1/../../../../../H-x86_64-mingw32/nios2-elf/lib/mno-hw-mul\libc.a(lib_a-signalr.o)
                0x000000000402ab98                _getpid_r
 .text          0x000000000402ab9c      0x104 c:/intelfpga_lite/20.1/nios2eds/bin/gnu/h-x86_64-mingw32/bin/../lib/gcc/nios2-elf/10.1.1/mno-hw-mul\libgcc.a(_muldi3.o)
                0x000000000402ab9c                __muldi3
 .text          0x000000000402aca0      0x620 c:/intelfpga_lite/20.1/nios2eds/bin/gnu/h-x86_64-mingw32/bin/../lib/gcc/nios2-elf/10.1.1/mno-hw-mul\libgcc.a(_udivdi3.o)
                0x000000000402aca0                __udivdi3
 .text          0x000000000402b2c0      0x5c4 c:/intelfpga_lite/20.1/nios2eds/bin/gnu/h-x86_64-mingw32/bin/../lib/gcc/nios2-elf/10.1.1/mno-hw-mul\libgcc.a(_umoddi3.o)
                0x000000000402b2c0                __umoddi3
 .text          0x000000000402b884      0x8f0 c:/intelfpga_lite/20.1/nios2eds/bin/gnu/h-x86_64-mingw32/bin/../lib/gcc/nios2-elf/10.1.1/mno-hw-mul\libgcc.a(adddf3.o)
                0x000000000402b884                __adddf3
 .text          0x000000000402c174      0x930 c:/intelfpga_lite/20.1/nios2eds/bin/gnu/h-x86_64-mingw32/bin/../lib/gcc/nios2-elf/10.1.1/mno-hw-mul\libgcc.a(divdf3.o)
                0x000000000402c174                __divdf3
 .text          0x000000000402caa4       0x80 c:/intelfpga_lite/20.1/nios2eds/bin/gnu/h-x86_64-mingw32/bin/../lib/gcc/nios2-elf/10.1.1/mno-hw-mul\libgcc.a(eqdf2.o)
                0x000000000402caa4                __nedf2
                0x000000000402caa4                __eqdf2
 .text          0x000000000402cb24       0xe8 c:/intelfpga_lite/20.1/nios2eds/bin/gnu/h-x86_64-mingw32/bin/../lib/gcc/nios2-elf/10.1.1/mno-hw-mul\libgcc.a(gedf2.o)
                0x000000000402cb24                __gedf2
                0x000000000402cb24                __gtdf2
 .text          0x000000000402cc0c       0xe8 c:/intelfpga_lite/20.1/nios2eds/bin/gnu/h-x86_64-mingw32/bin/../lib/gcc/nios2-elf/10.1.1/mno-hw-mul\libgcc.a(ledf2.o)
                0x000000000402cc0c                __ledf2
                0x000000000402cc0c                __ltdf2
 .text          0x000000000402ccf4      0x7ac c:/intelfpga_lite/20.1/nios2eds/bin/gnu/h-x86_64-mingw32/bin/../lib/gcc/nios2-elf/10.1.1/mno-hw-mul\libgcc.a(muldf3.o)
                0x000000000402ccf4                __muldf3
 .text          0x000000000402d4a0      0x8b4 c:/intelfpga_lite/20.1/nios2eds/bin/gnu/h-x86_64-mingw32/bin/../lib/gcc/nios2-elf/10.1.1/mno-hw-mul\libgcc.a(subdf3.o)
                0x000000000402d4a0                __subdf3
 .text          0x000000000402dd54       0x54 c:/intelfpga_lite/20.1/nios2eds/bin/gnu/h-x86_64-mingw32/bin/../lib/gcc/nios2-elf/10.1.1/mno-hw-mul\libgcc.a(unorddf2.o)
                0x000000000402dd54                __unorddf2
 .text          0x000000000402dda8       0x80 c:/intelfpga_lite/20.1/nios2eds/bin/gnu/h-x86_64-mingw32/bin/../lib/gcc/nios2-elf/10.1.1/mno-hw-mul\libgcc.a(fixdfsi.o)
                0x000000000402dda8                __fixdfsi
 .text          0x000000000402de28       0xb8 c:/intelfpga_lite/20.1/nios2eds/bin/gnu/h-x86_64-mingw32/bin/../lib/gcc/nios2-elf/10.1.1/mno-hw-mul\libgcc.a(floatsidf.o)
                0x000000000402de28                __floatsidf
 .text          0x000000000402dee0       0x90 c:/intelfpga_lite/20.1/nios2eds/bin/gnu/h-x86_64-mingw32/bin/../lib/gcc/nios2-elf/10.1.1/mno-hw-mul\libgcc.a(floatunsidf.o)
                0x000000000402dee0                __floatunsidf
 .text          0x000000000402df70        0x0 c:/intelfpga_lite/20.1/nios2eds/bin/gnu/h-x86_64-mingw32/bin/../lib/gcc/nios2-elf/10.1.1/mno-hw-mul\libgcc.a(_clz.o)
 .text          0x000000000402df70       0x54 c:/intelfpga_lite/20.1/nios2eds/bin/gnu/h-x86_64-mingw32/bin/../lib/gcc/nios2-elf/10.1.1/mno-hw-mul\libgcc.a(_clzsi2.o)
                0x000000000402df70                __clzsi2
 .text          0x000000000402dfc4      0x118 c:/fpga/DE1-SoC_v.5.1.3_HWrevF.revG_SystemCD/Demonstrations/FPGA/DE1_SoC_SDRAM_Nios_Test/software/sdram_nios_test_v2_bsp/\libhal_bsp.a(alt_close.o)
                0x000000000402e000                close
 .text          0x000000000402e0dc       0x20 c:/fpga/DE1-SoC_v.5.1.3_HWrevF.revG_SystemCD/Demonstrations/FPGA/DE1_SoC_SDRAM_Nios_Test/software/sdram_nios_test_v2_bsp/\libhal_bsp.a(alt_dcache_flush_all.o)
                0x000000000402e0dc                alt_dcache_flush_all
 .text          0x000000000402e0fc       0x2c c:/fpga/DE1-SoC_v.5.1.3_HWrevF.revG_SystemCD/Demonstrations/FPGA/DE1_SoC_SDRAM_Nios_Test/software/sdram_nios_test_v2_bsp/\libhal_bsp.a(alt_dev.o)
 .text          0x000000000402e128        0x0 c:/fpga/DE1-SoC_v.5.1.3_HWrevF.revG_SystemCD/Demonstrations/FPGA/DE1_SoC_SDRAM_Nios_Test/software/sdram_nios_test_v2_bsp/\libhal_bsp.a(alt_errno.o)
 .text          0x000000000402e128       0x38 c:/fpga/DE1-SoC_v.5.1.3_HWrevF.revG_SystemCD/Demonstrations/FPGA/DE1_SoC_SDRAM_Nios_Test/software/sdram_nios_test_v2_bsp/\libhal_bsp.a(alt_exit.o)
                0x000000000402e128                _exit
 .text          0x000000000402e160       0xf8 c:/fpga/DE1-SoC_v.5.1.3_HWrevF.revG_SystemCD/Demonstrations/FPGA/DE1_SoC_SDRAM_Nios_Test/software/sdram_nios_test_v2_bsp/\libhal_bsp.a(alt_fstat.o)
                0x000000000402e19c                fstat
 .text          0x000000000402e258       0x20 c:/fpga/DE1-SoC_v.5.1.3_HWrevF.revG_SystemCD/Demonstrations/FPGA/DE1_SoC_SDRAM_Nios_Test/software/sdram_nios_test_v2_bsp/\libhal_bsp.a(alt_getpid.o)
                0x000000000402e258                getpid
 .text          0x000000000402e278       0xec c:/fpga/DE1-SoC_v.5.1.3_HWrevF.revG_SystemCD/Demonstrations/FPGA/DE1_SoC_SDRAM_Nios_Test/software/sdram_nios_test_v2_bsp/\libhal_bsp.a(alt_isatty.o)
                0x000000000402e2b4                isatty
 .text          0x000000000402e364      0x168 c:/fpga/DE1-SoC_v.5.1.3_HWrevF.revG_SystemCD/Demonstrations/FPGA/DE1_SoC_SDRAM_Nios_Test/software/sdram_nios_test_v2_bsp/\libhal_bsp.a(alt_kill.o)
                0x000000000402e3a0                kill
 .text          0x000000000402e4cc       0xec c:/fpga/DE1-SoC_v.5.1.3_HWrevF.revG_SystemCD/Demonstrations/FPGA/DE1_SoC_SDRAM_Nios_Test/software/sdram_nios_test_v2_bsp/\libhal_bsp.a(alt_load.o)
                0x000000000402e534                alt_load
 .text          0x000000000402e5b8      0x11c c:/fpga/DE1-SoC_v.5.1.3_HWrevF.revG_SystemCD/Demonstrations/FPGA/DE1_SoC_SDRAM_Nios_Test/software/sdram_nios_test_v2_bsp/\libhal_bsp.a(alt_lseek.o)
                0x000000000402e5f4                lseek
 .text          0x000000000402e6d4       0x7c c:/fpga/DE1-SoC_v.5.1.3_HWrevF.revG_SystemCD/Demonstrations/FPGA/DE1_SoC_SDRAM_Nios_Test/software/sdram_nios_test_v2_bsp/\libhal_bsp.a(alt_main.o)
                0x000000000402e6d4                alt_main
 .text          0x000000000402e750       0x48 c:/fpga/DE1-SoC_v.5.1.3_HWrevF.revG_SystemCD/Demonstrations/FPGA/DE1_SoC_SDRAM_Nios_Test/software/sdram_nios_test_v2_bsp/\libhal_bsp.a(alt_malloc_lock.o)
                0x000000000402e750                __malloc_lock
                0x000000000402e774                __malloc_unlock
 .text          0x000000000402e798      0x144 c:/fpga/DE1-SoC_v.5.1.3_HWrevF.revG_SystemCD/Demonstrations/FPGA/DE1_SoC_SDRAM_Nios_Test/software/sdram_nios_test_v2_bsp/\libhal_bsp.a(alt_read.o)
                0x000000000402e7d4                read
 .text          0x000000000402e8dc       0x70 c:/fpga/DE1-SoC_v.5.1.3_HWrevF.revG_SystemCD/Demonstrations/FPGA/DE1_SoC_SDRAM_Nios_Test/software/sdram_nios_test_v2_bsp/\libhal_bsp.a(alt_release_fd.o)
                0x000000000402e8dc                alt_release_fd
 .text          0x000000000402e94c       0xb8 c:/fpga/DE1-SoC_v.5.1.3_HWrevF.revG_SystemCD/Demonstrations/FPGA/DE1_SoC_SDRAM_Nios_Test/software/sdram_nios_test_v2_bsp/\libhal_bsp.a(alt_sbrk.o)
                0x000000000402e94c                sbrk
 .text          0x000000000402ea04      0x1ac c:/fpga/DE1-SoC_v.5.1.3_HWrevF.revG_SystemCD/Demonstrations/FPGA/DE1_SoC_SDRAM_Nios_Test/software/sdram_nios_test_v2_bsp/\libhal_bsp.a(alt_tick.o)
                0x000000000402ea04                alt_alarm_stop
                0x000000000402eaa8                alt_tick
 .text          0x000000000402ebb0       0x30 c:/fpga/DE1-SoC_v.5.1.3_HWrevF.revG_SystemCD/Demonstrations/FPGA/DE1_SoC_SDRAM_Nios_Test/software/sdram_nios_test_v2_bsp/\libhal_bsp.a(alt_usleep.o)
                0x000000000402ebb0                usleep
 .text          0x000000000402ebe0      0x140 c:/fpga/DE1-SoC_v.5.1.3_HWrevF.revG_SystemCD/Demonstrations/FPGA/DE1_SoC_SDRAM_Nios_Test/software/sdram_nios_test_v2_bsp/\libhal_bsp.a(alt_write.o)
                0x000000000402ec1c                write
 .text          0x000000000402ed20       0xd4 c:/fpga/DE1-SoC_v.5.1.3_HWrevF.revG_SystemCD/Demonstrations/FPGA/DE1_SoC_SDRAM_Nios_Test/software/sdram_nios_test_v2_bsp/\libhal_bsp.a(alt_sys_init.o)
                0x000000000402ed54                alt_irq_init
                0x000000000402ed90                alt_sys_init
 .text          0x000000000402edf4      0x164 c:/fpga/DE1-SoC_v.5.1.3_HWrevF.revG_SystemCD/Demonstrations/FPGA/DE1_SoC_SDRAM_Nios_Test/software/sdram_nios_test_v2_bsp/\libhal_bsp.a(altera_avalon_jtag_uart_fd.o)
                0x000000000402edf4                altera_avalon_jtag_uart_read_fd
                0x000000000402ee54                altera_avalon_jtag_uart_write_fd
                0x000000000402eeb4                altera_avalon_jtag_uart_close_fd
                0x000000000402ef04                altera_avalon_jtag_uart_ioctl_fd
 .text          0x000000000402ef58      0x3d4 c:/fpga/DE1-SoC_v.5.1.3_HWrevF.revG_SystemCD/Demonstrations/FPGA/DE1_SoC_SDRAM_Nios_Test/software/sdram_nios_test_v2_bsp/\libhal_bsp.a(altera_avalon_jtag_uart_init.o)
                0x000000000402ef58                altera_avalon_jtag_uart_init
                0x000000000402f2c4                altera_avalon_jtag_uart_close
 .text          0x000000000402f32c       0xf4 c:/fpga/DE1-SoC_v.5.1.3_HWrevF.revG_SystemCD/Demonstrations/FPGA/DE1_SoC_SDRAM_Nios_Test/software/sdram_nios_test_v2_bsp/\libhal_bsp.a(altera_avalon_jtag_uart_ioctl.o)
                0x000000000402f32c                altera_avalon_jtag_uart_ioctl
 .text          0x000000000402f420      0x220 c:/fpga/DE1-SoC_v.5.1.3_HWrevF.revG_SystemCD/Demonstrations/FPGA/DE1_SoC_SDRAM_Nios_Test/software/sdram_nios_test_v2_bsp/\libhal_bsp.a(altera_avalon_jtag_uart_read.o)
                0x000000000402f420                altera_avalon_jtag_uart_read
 .text          0x000000000402f640      0x228 c:/fpga/DE1-SoC_v.5.1.3_HWrevF.revG_SystemCD/Demonstrations/FPGA/DE1_SoC_SDRAM_Nios_Test/software/sdram_nios_test_v2_bsp/\libhal_bsp.a(altera_avalon_jtag_uart_write.o)
                0x000000000402f640                altera_avalon_jtag_uart_write
 .text          0x000000000402f868      0x100 c:/fpga/DE1-SoC_v.5.1.3_HWrevF.revG_SystemCD/Demonstrations/FPGA/DE1_SoC_SDRAM_Nios_Test/software/sdram_nios_test_v2_bsp/\libhal_bsp.a(altera_avalon_timer_sc.o)
                0x000000000402f8e4                alt_avalon_timer_sc_init
 .text          0x000000000402f968      0x134 c:/fpga/DE1-SoC_v.5.1.3_HWrevF.revG_SystemCD/Demonstrations/FPGA/DE1_SoC_SDRAM_Nios_Test/software/sdram_nios_test_v2_bsp/\libhal_bsp.a(alt_alarm_start.o)
                0x000000000402f968                alt_alarm_start
 .text          0x000000000402fa9c      0x158 c:/fpga/DE1-SoC_v.5.1.3_HWrevF.revG_SystemCD/Demonstrations/FPGA/DE1_SoC_SDRAM_Nios_Test/software/sdram_nios_test_v2_bsp/\libhal_bsp.a(alt_busy_sleep.o)
                0x000000000402fa9c                alt_busy_sleep
 .text          0x000000000402fbf4       0xe4 c:/fpga/DE1-SoC_v.5.1.3_HWrevF.revG_SystemCD/Demonstrations/FPGA/DE1_SoC_SDRAM_Nios_Test/software/sdram_nios_test_v2_bsp/\libhal_bsp.a(alt_dev_llist_insert.o)
                0x000000000402fc30                alt_dev_llist_insert
 .text          0x000000000402fcd8       0x64 c:/fpga/DE1-SoC_v.5.1.3_HWrevF.revG_SystemCD/Demonstrations/FPGA/DE1_SoC_SDRAM_Nios_Test/software/sdram_nios_test_v2_bsp/\libhal_bsp.a(alt_do_ctors.o)
                0x000000000402fcd8                _do_ctors
 .text          0x000000000402fd3c       0x64 c:/fpga/DE1-SoC_v.5.1.3_HWrevF.revG_SystemCD/Demonstrations/FPGA/DE1_SoC_SDRAM_Nios_Test/software/sdram_nios_test_v2_bsp/\libhal_bsp.a(alt_do_dtors.o)
                0x000000000402fd3c                _do_dtors
 .text          0x000000000402fda0       0x20 c:/fpga/DE1-SoC_v.5.1.3_HWrevF.revG_SystemCD/Demonstrations/FPGA/DE1_SoC_SDRAM_Nios_Test/software/sdram_nios_test_v2_bsp/\libhal_bsp.a(alt_icache_flush_all.o)
                0x000000000402fda0                alt_icache_flush_all
 .text          0x000000000402fdc0      0x1b0 c:/fpga/DE1-SoC_v.5.1.3_HWrevF.revG_SystemCD/Demonstrations/FPGA/DE1_SoC_SDRAM_Nios_Test/software/sdram_nios_test_v2_bsp/\libhal_bsp.a(alt_iic.o)
                0x000000000402fdc0                alt_ic_isr_register
                0x000000000402fe10                alt_ic_irq_enable
                0x000000000402fe98                alt_ic_irq_disable
                0x000000000402ff24                alt_ic_irq_enabled
 .text          0x000000000402ff70       0xe8 c:/fpga/DE1-SoC_v.5.1.3_HWrevF.revG_SystemCD/Demonstrations/FPGA/DE1_SoC_SDRAM_Nios_Test/software/sdram_nios_test_v2_bsp/\libhal_bsp.a(alt_iic_isr_register.o)
                0x000000000402ff70                alt_iic_isr_register
 .text          0x0000000004030058      0x150 c:/fpga/DE1-SoC_v.5.1.3_HWrevF.revG_SystemCD/Demonstrations/FPGA/DE1_SoC_SDRAM_Nios_Test/software/sdram_nios_test_v2_bsp/\libhal_bsp.a(alt_io_redirect.o)
                0x000000000403012c                alt_io_redirect
 .text          0x00000000040301a8        0x0 c:/fpga/DE1-SoC_v.5.1.3_HWrevF.revG_SystemCD/Demonstrations/FPGA/DE1_SoC_SDRAM_Nios_Test/software/sdram_nios_test_v2_bsp/\libhal_bsp.a(alt_irq_entry.o)
 .text          0x00000000040301a8        0x0 c:/fpga/DE1-SoC_v.5.1.3_HWrevF.revG_SystemCD/Demonstrations/FPGA/DE1_SoC_SDRAM_Nios_Test/software/sdram_nios_test_v2_bsp/\libhal_bsp.a(alt_irq_handler.o)
 .text          0x00000000040301a8        0x0 c:/fpga/DE1-SoC_v.5.1.3_HWrevF.revG_SystemCD/Demonstrations/FPGA/DE1_SoC_SDRAM_Nios_Test/software/sdram_nios_test_v2_bsp/\libhal_bsp.a(alt_irq_vars.o)
 .text          0x00000000040301a8      0x278 c:/fpga/DE1-SoC_v.5.1.3_HWrevF.revG_SystemCD/Demonstrations/FPGA/DE1_SoC_SDRAM_Nios_Test/software/sdram_nios_test_v2_bsp/\libhal_bsp.a(alt_open.o)
                0x00000000040302c0                open
 .text          0x0000000004030420       0x24 c:/fpga/DE1-SoC_v.5.1.3_HWrevF.revG_SystemCD/Demonstrations/FPGA/DE1_SoC_SDRAM_Nios_Test/software/sdram_nios_test_v2_bsp/\libhal_bsp.a(altera_nios2_gen2_irq.o)
                0x0000000004030420                altera_nios2_gen2_irq_init
 .text          0x0000000004030444        0x0 c:/fpga/DE1-SoC_v.5.1.3_HWrevF.revG_SystemCD/Demonstrations/FPGA/DE1_SoC_SDRAM_Nios_Test/software/sdram_nios_test_v2_bsp/\libhal_bsp.a(alt_exception_entry.o)
 .text          0x0000000004030444       0x90 c:/fpga/DE1-SoC_v.5.1.3_HWrevF.revG_SystemCD/Demonstrations/FPGA/DE1_SoC_SDRAM_Nios_Test/software/sdram_nios_test_v2_bsp/\libhal_bsp.a(alt_find_dev.o)
                0x0000000004030444                alt_find_dev
 .text          0x00000000040304d4      0x108 c:/fpga/DE1-SoC_v.5.1.3_HWrevF.revG_SystemCD/Demonstrations/FPGA/DE1_SoC_SDRAM_Nios_Test/software/sdram_nios_test_v2_bsp/\libhal_bsp.a(alt_find_file.o)
                0x00000000040304d4                alt_find_file
 .text          0x00000000040305dc       0xb8 c:/fpga/DE1-SoC_v.5.1.3_HWrevF.revG_SystemCD/Demonstrations/FPGA/DE1_SoC_SDRAM_Nios_Test/software/sdram_nios_test_v2_bsp/\libhal_bsp.a(alt_get_fd.o)
                0x00000000040305dc                alt_get_fd
 .text          0x0000000004030694       0x98 c:/fpga/DE1-SoC_v.5.1.3_HWrevF.revG_SystemCD/Demonstrations/FPGA/DE1_SoC_SDRAM_Nios_Test/software/sdram_nios_test_v2_bsp/\libhal_bsp.a(alt_instruction_exception_entry.o)
                0x0000000004030694                alt_exception_cause_generated_bad_addr
 .text          0x000000000403072c        0x0 c:/intelfpga_lite/20.1/nios2eds/bin/gnu/h-x86_64-mingw32/bin/../lib/gcc/nios2-elf/10.1.1/../../../../../H-x86_64-mingw32/nios2-elf/lib/mno-hw-mul\libc.a(lib_a-atexit.o)
 .text.atexit   0x000000000403072c       0x14 c:/intelfpga_lite/20.1/nios2eds/bin/gnu/h-x86_64-mingw32/bin/../lib/gcc/nios2-elf/10.1.1/../../../../../H-x86_64-mingw32/nios2-elf/lib/mno-hw-mul\libc.a(lib_a-atexit.o)
                0x000000000403072c                atexit
 .text          0x0000000004030740        0x0 c:/intelfpga_lite/20.1/nios2eds/bin/gnu/h-x86_64-mingw32/bin/../lib/gcc/nios2-elf/10.1.1/../../../../../H-x86_64-mingw32/nios2-elf/lib/mno-hw-mul\libc.a(lib_a-exit.o)
 .text.exit     0x0000000004030740       0x34 c:/intelfpga_lite/20.1/nios2eds/bin/gnu/h-x86_64-mingw32/bin/../lib/gcc/nios2-elf/10.1.1/../../../../../H-x86_64-mingw32/nios2-elf/lib/mno-hw-mul\libc.a(lib_a-exit.o)
                0x0000000004030740                exit
 .text          0x0000000004030774        0x0 c:/intelfpga_lite/20.1/nios2eds/bin/gnu/h-x86_64-mingw32/bin/../lib/gcc/nios2-elf/10.1.1/../../../../../H-x86_64-mingw32/nios2-elf/lib/mno-hw-mul\libc.a(lib_a-memcmp.o)
 .text.memcmp   0x0000000004030774       0x78 c:/intelfpga_lite/20.1/nios2eds/bin/gnu/h-x86_64-mingw32/bin/../lib/gcc/nios2-elf/10.1.1/../../../../../H-x86_64-mingw32/nios2-elf/lib/mno-hw-mul\libc.a(lib_a-memcmp.o)
                0x0000000004030774                memcmp
 .text          0x00000000040307ec        0x0 c:/intelfpga_lite/20.1/nios2eds/bin/gnu/h-x86_64-mingw32/bin/../lib/gcc/nios2-elf/10.1.1/../../../../../H-x86_64-mingw32/nios2-elf/lib/mno-hw-mul\libc.a(lib_a-__atexit.o)
 .text.__register_exitproc
                0x00000000040307ec       0x90 c:/intelfpga_lite/20.1/nios2eds/bin/gnu/h-x86_64-mingw32/bin/../lib/gcc/nios2-elf/10.1.1/../../../../../H-x86_64-mingw32/nios2-elf/lib/mno-hw-mul\libc.a(lib_a-__atexit.o)
                0x00000000040307ec                __register_exitproc
 .text          0x000000000403087c        0x0 c:/intelfpga_lite/20.1/nios2eds/bin/gnu/h-x86_64-mingw32/bin/../lib/gcc/nios2-elf/10.1.1/../../../../../H-x86_64-mingw32/nios2-elf/lib/mno-hw-mul\libc.a(lib_a-__call_atexit.o)
 .text.__call_exitprocs
                0x000000000403087c      0x120 c:/intelfpga_lite/20.1/nios2eds/bin/gnu/h-x86_64-mingw32/bin/../lib/gcc/nios2-elf/10.1.1/../../../../../H-x86_64-mingw32/nios2-elf/lib/mno-hw-mul\libc.a(lib_a-__call_atexit.o)
                0x000000000403087c                __call_exitprocs
 *(.gnu.warning.*)
 *(.fini)
                [!provide]                        PROVIDE (__etext = ABSOLUTE (.))
                [!provide]                        PROVIDE (_etext = ABSOLUTE (.))
                [!provide]                        PROVIDE (etext = ABSOLUTE (.))
 *(.eh_frame_hdr)
                0x000000000403099c                . = ALIGN (0x4)
                [!provide]                        PROVIDE (__preinit_array_start = ABSOLUTE (.))
 *(.preinit_array)
                [!provide]                        PROVIDE (__preinit_array_end = ABSOLUTE (.))
                [!provide]                        PROVIDE (__init_array_start = ABSOLUTE (.))
 *(.init_array)
                [!provide]                        PROVIDE (__init_array_end = ABSOLUTE (.))
                [!provide]                        PROVIDE (__fini_array_start = ABSOLUTE (.))
 *(.fini_array)
                [!provide]                        PROVIDE (__fini_array_end = ABSOLUTE (.))
 *(.eh_frame)
 *(.gcc_except_table .gcc_except_table.*)
 *(.dynamic)
                0x000000000403099c                PROVIDE (__CTOR_LIST__ = ABSOLUTE (.))
 *(.ctors)
 *(SORT_BY_NAME(.ctors.*))
                0x000000000403099c                PROVIDE (__CTOR_END__ = ABSOLUTE (.))
                0x000000000403099c                PROVIDE (__DTOR_LIST__ = ABSOLUTE (.))
 *(.dtors)
 *(SORT_BY_NAME(.dtors.*))
                0x000000000403099c                PROVIDE (__DTOR_END__ = ABSOLUTE (.))
 *(.jcr)
                0x000000000403099c                . = ALIGN (0x4)

.rodata         0x0000000000000000      0x784 load address 0x000000000403099c
                0x0000000000000000                PROVIDE (__ram_rodata_start = ABSOLUTE (.))
                0x0000000000000000                . = ALIGN (0x4)
 *(.rodata .rodata.* .gnu.linkonce.r.*)
 .rodata        0x0000000000000000       0xe0 obj/default/main.o
 .rodata        0x00000000000000e0       0x52 obj/default/mem_verify.o
 *fill*         0x0000000000000132        0x2 
 .rodata._puts_r.str1.4
                0x0000000000000134        0x2 c:/intelfpga_lite/20.1/nios2eds/bin/gnu/h-x86_64-mingw32/bin/../lib/gcc/nios2-elf/10.1.1/../../../../../H-x86_64-mingw32/nios2-elf/lib/mno-hw-mul\libc.a(lib_a-puts.o)
 *fill*         0x0000000000000136        0x2 
 .rodata.___vfprintf_internal_r.str1.4
                0x0000000000000138       0x42 c:/intelfpga_lite/20.1/nios2eds/bin/gnu/h-x86_64-mingw32/bin/../lib/gcc/nios2-elf/10.1.1/../../../../../H-x86_64-mingw32/nios2-elf/lib/mno-hw-mul\libc.a(lib_a-vfprintf.o)
 *fill*         0x000000000000017a        0x2 
 .rodata.zeroes.0
                0x000000000000017c       0x10 c:/intelfpga_lite/20.1/nios2eds/bin/gnu/h-x86_64-mingw32/bin/../lib/gcc/nios2-elf/10.1.1/../../../../../H-x86_64-mingw32/nios2-elf/lib/mno-hw-mul\libc.a(lib_a-vfprintf.o)
 .rodata.blanks.1
                0x000000000000018c       0x10 c:/intelfpga_lite/20.1/nios2eds/bin/gnu/h-x86_64-mingw32/bin/../lib/gcc/nios2-elf/10.1.1/../../../../../H-x86_64-mingw32/nios2-elf/lib/mno-hw-mul\libc.a(lib_a-vfprintf.o)
 .rodata._dtoa_r.str1.4
                0x000000000000019c       0x61 c:/intelfpga_lite/20.1/nios2eds/bin/gnu/h-x86_64-mingw32/bin/../lib/gcc/nios2-elf/10.1.1/../../../../../H-x86_64-mingw32/nios2-elf/lib/mno-hw-mul\libc.a(lib_a-dtoa.o)
                                         0x65 (size before relaxing)
 *fill*         0x00000000000001fd        0x3 
 .rodata.__multadd.str1.4
                0x0000000000000200       0x3e c:/intelfpga_lite/20.1/nios2eds/bin/gnu/h-x86_64-mingw32/bin/../lib/gcc/nios2-elf/10.1.1/../../../../../H-x86_64-mingw32/nios2-elf/lib/mno-hw-mul\libc.a(lib_a-mprec.o)
                                         0x52 (size before relaxing)
 *fill*         0x000000000000023e        0x2 
 .rodata.p05.0  0x0000000000000240        0xc c:/intelfpga_lite/20.1/nios2eds/bin/gnu/h-x86_64-mingw32/bin/../lib/gcc/nios2-elf/10.1.1/../../../../../H-x86_64-mingw32/nios2-elf/lib/mno-hw-mul\libc.a(lib_a-mprec.o)
 .rodata.__mprec_tinytens
                0x000000000000024c       0x28 c:/intelfpga_lite/20.1/nios2eds/bin/gnu/h-x86_64-mingw32/bin/../lib/gcc/nios2-elf/10.1.1/../../../../../H-x86_64-mingw32/nios2-elf/lib/mno-hw-mul\libc.a(lib_a-mprec.o)
                0x000000000000024c                __mprec_tinytens
 .rodata.__mprec_bigtens
                0x0000000000000274       0x28 c:/intelfpga_lite/20.1/nios2eds/bin/gnu/h-x86_64-mingw32/bin/../lib/gcc/nios2-elf/10.1.1/../../../../../H-x86_64-mingw32/nios2-elf/lib/mno-hw-mul\libc.a(lib_a-mprec.o)
                0x0000000000000274                __mprec_bigtens
 .rodata.__mprec_tens
                0x000000000000029c       0xc8 c:/intelfpga_lite/20.1/nios2eds/bin/gnu/h-x86_64-mingw32/bin/../lib/gcc/nios2-elf/10.1.1/../../../../../H-x86_64-mingw32/nios2-elf/lib/mno-hw-mul\libc.a(lib_a-mprec.o)
                0x000000000000029c                __mprec_tens
 .rodata.___vfiprintf_internal_r.str1.4
                0x0000000000000364       0x2f c:/intelfpga_lite/20.1/nios2eds/bin/gnu/h-x86_64-mingw32/bin/../lib/gcc/nios2-elf/10.1.1/../../../../../H-x86_64-mingw32/nios2-elf/lib/mno-hw-mul\libc.a(lib_a-vfiprintf.o)
 .rodata.zeroes.0
                0x0000000000000364       0x10 c:/intelfpga_lite/20.1/nios2eds/bin/gnu/h-x86_64-mingw32/bin/../lib/gcc/nios2-elf/10.1.1/../../../../../H-x86_64-mingw32/nios2-elf/lib/mno-hw-mul\libc.a(lib_a-vfiprintf.o)
 .rodata.blanks.1
                0x0000000000000374       0x10 c:/intelfpga_lite/20.1/nios2eds/bin/gnu/h-x86_64-mingw32/bin/../lib/gcc/nios2-elf/10.1.1/../../../../../H-x86_64-mingw32/nios2-elf/lib/mno-hw-mul\libc.a(lib_a-vfiprintf.o)
 .rodata.__assert_func.str1.4
                0x0000000000000384       0x3f c:/intelfpga_lite/20.1/nios2eds/bin/gnu/h-x86_64-mingw32/bin/../lib/gcc/nios2-elf/10.1.1/../../../../../H-x86_64-mingw32/nios2-elf/lib/mno-hw-mul\libc.a(lib_a-assert.o)
                                         0x43 (size before relaxing)
 *fill*         0x00000000000003c3        0x1 
 .rodata._setlocale_r.str1.4
                0x00000000000003c4        0xa c:/intelfpga_lite/20.1/nios2eds/bin/gnu/h-x86_64-mingw32/bin/../lib/gcc/nios2-elf/10.1.1/../../../../../H-x86_64-mingw32/nios2-elf/lib/mno-hw-mul\libc.a(lib_a-locale.o)
 *fill*         0x00000000000003ce        0x2 
 .rodata.str1.4
                0x00000000000003d0        0x2 c:/intelfpga_lite/20.1/nios2eds/bin/gnu/h-x86_64-mingw32/bin/../lib/gcc/nios2-elf/10.1.1/../../../../../H-x86_64-mingw32/nios2-elf/lib/mno-hw-mul\libc.a(lib_a-locale.o)
                                          0x5 (size before relaxing)
 *fill*         0x00000000000003d2        0x2 
 .rodata._ctype_
                0x00000000000003d4      0x101 c:/intelfpga_lite/20.1/nios2eds/bin/gnu/h-x86_64-mingw32/bin/../lib/gcc/nios2-elf/10.1.1/../../../../../H-x86_64-mingw32/nios2-elf/lib/mno-hw-mul\libc.a(lib_a-ctype_.o)
                0x00000000000003d4                _ctype_
 *fill*         0x00000000000004d5        0x3 
 .rodata._ctype_b
                0x00000000000004d8      0x180 c:/intelfpga_lite/20.1/nios2eds/bin/gnu/h-x86_64-mingw32/bin/../lib/gcc/nios2-elf/10.1.1/../../../../../H-x86_64-mingw32/nios2-elf/lib/mno-hw-mul\libc.a(lib_a-ctype_.o)
                0x00000000000004d8                _ctype_b
 .rodata        0x0000000000000658      0x100 c:/intelfpga_lite/20.1/nios2eds/bin/gnu/h-x86_64-mingw32/bin/../lib/gcc/nios2-elf/10.1.1/mno-hw-mul\libgcc.a(_clz.o)
                0x0000000000000658                __clz_tab
 .rodata        0x0000000000000758        0xa c:/fpga/DE1-SoC_v.5.1.3_HWrevF.revG_SystemCD/Demonstrations/FPGA/DE1_SoC_SDRAM_Nios_Test/software/sdram_nios_test_v2_bsp/\libhal_bsp.a(alt_dev.o)
 *fill*         0x0000000000000762        0x2 
 .rodata        0x0000000000000764        0xf c:/fpga/DE1-SoC_v.5.1.3_HWrevF.revG_SystemCD/Demonstrations/FPGA/DE1_SoC_SDRAM_Nios_Test/software/sdram_nios_test_v2_bsp/\libhal_bsp.a(alt_main.o)
 *fill*         0x0000000000000773        0x1 
 .rodata        0x0000000000000774        0xf c:/fpga/DE1-SoC_v.5.1.3_HWrevF.revG_SystemCD/Demonstrations/FPGA/DE1_SoC_SDRAM_Nios_Test/software/sdram_nios_test_v2_bsp/\libhal_bsp.a(alt_sys_init.o)
 *(.rodata1)
                0x0000000000000784                . = ALIGN (0x4)
 *fill*         0x0000000000000783        0x1 
                0x0000000000000784                PROVIDE (__ram_rodata_end = ABSOLUTE (.))
                0x000000000403099c                PROVIDE (__flash_rodata_start = LOADADDR (.rodata))

.rwdata         0x0000000000000784     0x1bd8 load address 0x0000000004031120
                0x0000000000000784                PROVIDE (__ram_rwdata_start = ABSOLUTE (.))
                0x0000000000000784                . = ALIGN (0x4)
 *(.got.plt)
 *(.got)
 *(.data1)
 *(.data .data.* .gnu.linkonce.d.*)
 .data          0x0000000000000784        0x0 c:/fpga/DE1-SoC_v.5.1.3_HWrevF.revG_SystemCD/Demonstrations/FPGA/DE1_SoC_SDRAM_Nios_Test/software/sdram_nios_test_v2_bsp//obj/HAL/src/crt0.o
 .data          0x0000000000000784        0x0 obj/default/main.o
 .data          0x0000000000000784        0x0 obj/default/mem_verify.o
 .data          0x0000000000000784        0x0 c:/intelfpga_lite/20.1/nios2eds/bin/gnu/h-x86_64-mingw32/bin/../lib/gcc/nios2-elf/10.1.1/mno-hw-mul\libgcc.a(lib2-divmod.o)
 .data          0x0000000000000784        0x0 c:/intelfpga_lite/20.1/nios2eds/bin/gnu/h-x86_64-mingw32/bin/../lib/gcc/nios2-elf/10.1.1/mno-hw-mul\libgcc.a(lib2-mul.o)
 .data          0x0000000000000784        0x0 c:/intelfpga_lite/20.1/nios2eds/bin/gnu/h-x86_64-mingw32/bin/../lib/gcc/nios2-elf/10.1.1/../../../../../H-x86_64-mingw32/nios2-elf/lib/mno-hw-mul\libc.a(lib_a-memcpy.o)
 .data          0x0000000000000784        0x0 c:/intelfpga_lite/20.1/nios2eds/bin/gnu/h-x86_64-mingw32/bin/../lib/gcc/nios2-elf/10.1.1/../../../../../H-x86_64-mingw32/nios2-elf/lib/mno-hw-mul\libc.a(lib_a-printf.o)
 .data          0x0000000000000784        0x0 c:/intelfpga_lite/20.1/nios2eds/bin/gnu/h-x86_64-mingw32/bin/../lib/gcc/nios2-elf/10.1.1/../../../../../H-x86_64-mingw32/nios2-elf/lib/mno-hw-mul\libc.a(lib_a-putchar.o)
 .data          0x0000000000000784        0x0 c:/intelfpga_lite/20.1/nios2eds/bin/gnu/h-x86_64-mingw32/bin/../lib/gcc/nios2-elf/10.1.1/../../../../../H-x86_64-mingw32/nios2-elf/lib/mno-hw-mul\libc.a(lib_a-puts.o)
 .data          0x0000000000000784        0x0 c:/intelfpga_lite/20.1/nios2eds/bin/gnu/h-x86_64-mingw32/bin/../lib/gcc/nios2-elf/10.1.1/../../../../../H-x86_64-mingw32/nios2-elf/lib/mno-hw-mul\libc.a(lib_a-rand.o)
 .data          0x0000000000000784        0x0 c:/intelfpga_lite/20.1/nios2eds/bin/gnu/h-x86_64-mingw32/bin/../lib/gcc/nios2-elf/10.1.1/../../../../../H-x86_64-mingw32/nios2-elf/lib/mno-hw-mul\libc.a(lib_a-strlen.o)
 .data          0x0000000000000784        0x0 c:/intelfpga_lite/20.1/nios2eds/bin/gnu/h-x86_64-mingw32/bin/../lib/gcc/nios2-elf/10.1.1/../../../../../H-x86_64-mingw32/nios2-elf/lib/mno-hw-mul\libc.a(lib_a-vfprintf.o)
 .data          0x0000000000000784        0x0 c:/intelfpga_lite/20.1/nios2eds/bin/gnu/h-x86_64-mingw32/bin/../lib/gcc/nios2-elf/10.1.1/../../../../../H-x86_64-mingw32/nios2-elf/lib/mno-hw-mul\libc.a(lib_a-wsetup.o)
 .data          0x0000000000000784        0x0 c:/intelfpga_lite/20.1/nios2eds/bin/gnu/h-x86_64-mingw32/bin/../lib/gcc/nios2-elf/10.1.1/../../../../../H-x86_64-mingw32/nios2-elf/lib/mno-hw-mul\libc.a(lib_a-dtoa.o)
 .data          0x0000000000000784        0x0 c:/intelfpga_lite/20.1/nios2eds/bin/gnu/h-x86_64-mingw32/bin/../lib/gcc/nios2-elf/10.1.1/../../../../../H-x86_64-mingw32/nios2-elf/lib/mno-hw-mul\libc.a(lib_a-fflush.o)
 .data          0x0000000000000784        0x0 c:/intelfpga_lite/20.1/nios2eds/bin/gnu/h-x86_64-mingw32/bin/../lib/gcc/nios2-elf/10.1.1/../../../../../H-x86_64-mingw32/nios2-elf/lib/mno-hw-mul\libc.a(lib_a-findfp.o)
 .data          0x0000000000000784        0x0 c:/intelfpga_lite/20.1/nios2eds/bin/gnu/h-x86_64-mingw32/bin/../lib/gcc/nios2-elf/10.1.1/../../../../../H-x86_64-mingw32/nios2-elf/lib/mno-hw-mul\libc.a(lib_a-freer.o)
 .data          0x0000000000000784        0x0 c:/intelfpga_lite/20.1/nios2eds/bin/gnu/h-x86_64-mingw32/bin/../lib/gcc/nios2-elf/10.1.1/../../../../../H-x86_64-mingw32/nios2-elf/lib/mno-hw-mul\libc.a(lib_a-fvwrite.o)
 .data          0x0000000000000784        0x0 c:/intelfpga_lite/20.1/nios2eds/bin/gnu/h-x86_64-mingw32/bin/../lib/gcc/nios2-elf/10.1.1/../../../../../H-x86_64-mingw32/nios2-elf/lib/mno-hw-mul\libc.a(lib_a-fwalk.o)
 .data          0x0000000000000784        0x0 c:/intelfpga_lite/20.1/nios2eds/bin/gnu/h-x86_64-mingw32/bin/../lib/gcc/nios2-elf/10.1.1/../../../../../H-x86_64-mingw32/nios2-elf/lib/mno-hw-mul\libc.a(lib_a-impure.o)
 .data.impure_data
                0x0000000000000784      0x424 c:/intelfpga_lite/20.1/nios2eds/bin/gnu/h-x86_64-mingw32/bin/../lib/gcc/nios2-elf/10.1.1/../../../../../H-x86_64-mingw32/nios2-elf/lib/mno-hw-mul\libc.a(lib_a-impure.o)
 .data          0x0000000000000ba8        0x0 c:/intelfpga_lite/20.1/nios2eds/bin/gnu/h-x86_64-mingw32/bin/../lib/gcc/nios2-elf/10.1.1/../../../../../H-x86_64-mingw32/nios2-elf/lib/mno-hw-mul\libc.a(lib_a-localeconv.o)
 .data          0x0000000000000ba8        0x0 c:/intelfpga_lite/20.1/nios2eds/bin/gnu/h-x86_64-mingw32/bin/../lib/gcc/nios2-elf/10.1.1/../../../../../H-x86_64-mingw32/nios2-elf/lib/mno-hw-mul\libc.a(lib_a-makebuf.o)
 .data          0x0000000000000ba8        0x0 c:/intelfpga_lite/20.1/nios2eds/bin/gnu/h-x86_64-mingw32/bin/../lib/gcc/nios2-elf/10.1.1/../../../../../H-x86_64-mingw32/nios2-elf/lib/mno-hw-mul\libc.a(lib_a-mallocr.o)
 .data.__malloc_av_
                0x0000000000000ba8      0x408 c:/intelfpga_lite/20.1/nios2eds/bin/gnu/h-x86_64-mingw32/bin/../lib/gcc/nios2-elf/10.1.1/../../../../../H-x86_64-mingw32/nios2-elf/lib/mno-hw-mul\libc.a(lib_a-mallocr.o)
                0x0000000000000ba8                __malloc_av_
 .data          0x0000000000000fb0        0x0 c:/intelfpga_lite/20.1/nios2eds/bin/gnu/h-x86_64-mingw32/bin/../lib/gcc/nios2-elf/10.1.1/../../../../../H-x86_64-mingw32/nios2-elf/lib/mno-hw-mul\libc.a(lib_a-memchr.o)
 .data          0x0000000000000fb0        0x0 c:/intelfpga_lite/20.1/nios2eds/bin/gnu/h-x86_64-mingw32/bin/../lib/gcc/nios2-elf/10.1.1/../../../../../H-x86_64-mingw32/nios2-elf/lib/mno-hw-mul\libc.a(lib_a-memmove.o)
 .data          0x0000000000000fb0        0x0 c:/intelfpga_lite/20.1/nios2eds/bin/gnu/h-x86_64-mingw32/bin/../lib/gcc/nios2-elf/10.1.1/../../../../../H-x86_64-mingw32/nios2-elf/lib/mno-hw-mul\libc.a(lib_a-memset.o)
 .data          0x0000000000000fb0        0x0 c:/intelfpga_lite/20.1/nios2eds/bin/gnu/h-x86_64-mingw32/bin/../lib/gcc/nios2-elf/10.1.1/../../../../../H-x86_64-mingw32/nios2-elf/lib/mno-hw-mul\libc.a(lib_a-mprec.o)
 .data          0x0000000000000fb0        0x0 c:/intelfpga_lite/20.1/nios2eds/bin/gnu/h-x86_64-mingw32/bin/../lib/gcc/nios2-elf/10.1.1/../../../../../H-x86_64-mingw32/nios2-elf/lib/mno-hw-mul\libc.a(lib_a-putc.o)
 .data          0x0000000000000fb0        0x0 c:/intelfpga_lite/20.1/nios2eds/bin/gnu/h-x86_64-mingw32/bin/../lib/gcc/nios2-elf/10.1.1/../../../../../H-x86_64-mingw32/nios2-elf/lib/mno-hw-mul\libc.a(lib_a-reallocr.o)
 .data          0x0000000000000fb0        0x0 c:/intelfpga_lite/20.1/nios2eds/bin/gnu/h-x86_64-mingw32/bin/../lib/gcc/nios2-elf/10.1.1/../../../../../H-x86_64-mingw32/nios2-elf/lib/mno-hw-mul\libc.a(lib_a-sbrkr.o)
 .data          0x0000000000000fb0        0x0 c:/intelfpga_lite/20.1/nios2eds/bin/gnu/h-x86_64-mingw32/bin/../lib/gcc/nios2-elf/10.1.1/../../../../../H-x86_64-mingw32/nios2-elf/lib/mno-hw-mul\libc.a(lib_a-stdio.o)
 .data          0x0000000000000fb0        0x0 c:/intelfpga_lite/20.1/nios2eds/bin/gnu/h-x86_64-mingw32/bin/../lib/gcc/nios2-elf/10.1.1/../../../../../H-x86_64-mingw32/nios2-elf/lib/mno-hw-mul\libc.a(lib_a-vfiprintf.o)
 .data          0x0000000000000fb0        0x0 c:/intelfpga_lite/20.1/nios2eds/bin/gnu/h-x86_64-mingw32/bin/../lib/gcc/nios2-elf/10.1.1/../../../../../H-x86_64-mingw32/nios2-elf/lib/mno-hw-mul\libc.a(lib_a-wbuf.o)
 .data          0x0000000000000fb0        0x0 c:/intelfpga_lite/20.1/nios2eds/bin/gnu/h-x86_64-mingw32/bin/../lib/gcc/nios2-elf/10.1.1/../../../../../H-x86_64-mingw32/nios2-elf/lib/mno-hw-mul\libc.a(lib_a-writer.o)
 .data          0x0000000000000fb0        0x0 c:/intelfpga_lite/20.1/nios2eds/bin/gnu/h-x86_64-mingw32/bin/../lib/gcc/nios2-elf/10.1.1/../../../../../H-x86_64-mingw32/nios2-elf/lib/mno-hw-mul\libc.a(closer.o)
 .data          0x0000000000000fb0        0x0 c:/intelfpga_lite/20.1/nios2eds/bin/gnu/h-x86_64-mingw32/bin/../lib/gcc/nios2-elf/10.1.1/../../../../../H-x86_64-mingw32/nios2-elf/lib/mno-hw-mul\libc.a(lib_a-assert.o)
 .data          0x0000000000000fb0        0x0 c:/intelfpga_lite/20.1/nios2eds/bin/gnu/h-x86_64-mingw32/bin/../lib/gcc/nios2-elf/10.1.1/../../../../../H-x86_64-mingw32/nios2-elf/lib/mno-hw-mul\libc.a(lib_a-callocr.o)
 .data          0x0000000000000fb0        0x0 c:/intelfpga_lite/20.1/nios2eds/bin/gnu/h-x86_64-mingw32/bin/../lib/gcc/nios2-elf/10.1.1/../../../../../H-x86_64-mingw32/nios2-elf/lib/mno-hw-mul\libc.a(lib_a-fclose.o)
 .data          0x0000000000000fb0        0x0 c:/intelfpga_lite/20.1/nios2eds/bin/gnu/h-x86_64-mingw32/bin/../lib/gcc/nios2-elf/10.1.1/../../../../../H-x86_64-mingw32/nios2-elf/lib/mno-hw-mul\libc.a(lib_a-fiprintf.o)
 .data          0x0000000000000fb0        0x0 c:/intelfpga_lite/20.1/nios2eds/bin/gnu/h-x86_64-mingw32/bin/../lib/gcc/nios2-elf/10.1.1/../../../../../H-x86_64-mingw32/nios2-elf/lib/mno-hw-mul\libc.a(lib_a-fputwc.o)
 .data          0x0000000000000fb0        0x0 c:/intelfpga_lite/20.1/nios2eds/bin/gnu/h-x86_64-mingw32/bin/../lib/gcc/nios2-elf/10.1.1/../../../../../H-x86_64-mingw32/nios2-elf/lib/mno-hw-mul\libc.a(lib_a-fstatr.o)
 .data          0x0000000000000fb0        0x0 c:/intelfpga_lite/20.1/nios2eds/bin/gnu/h-x86_64-mingw32/bin/../lib/gcc/nios2-elf/10.1.1/../../../../../H-x86_64-mingw32/nios2-elf/lib/mno-hw-mul\libc.a(lib_a-int_errno.o)
 .data          0x0000000000000fb0        0x0 c:/intelfpga_lite/20.1/nios2eds/bin/gnu/h-x86_64-mingw32/bin/../lib/gcc/nios2-elf/10.1.1/../../../../../H-x86_64-mingw32/nios2-elf/lib/mno-hw-mul\libc.a(lib_a-isattyr.o)
 .data          0x0000000000000fb0        0x0 c:/intelfpga_lite/20.1/nios2eds/bin/gnu/h-x86_64-mingw32/bin/../lib/gcc/nios2-elf/10.1.1/../../../../../H-x86_64-mingw32/nios2-elf/lib/mno-hw-mul\libc.a(lib_a-locale.o)
 .data.__global_locale
                0x0000000000000fb0      0x16c c:/intelfpga_lite/20.1/nios2eds/bin/gnu/h-x86_64-mingw32/bin/../lib/gcc/nios2-elf/10.1.1/../../../../../H-x86_64-mingw32/nios2-elf/lib/mno-hw-mul\libc.a(lib_a-locale.o)
                0x0000000000000fb0                __global_locale
 .data          0x000000000000111c        0x0 c:/intelfpga_lite/20.1/nios2eds/bin/gnu/h-x86_64-mingw32/bin/../lib/gcc/nios2-elf/10.1.1/../../../../../H-x86_64-mingw32/nios2-elf/lib/mno-hw-mul\libc.a(lib_a-lseekr.o)
 .data          0x000000000000111c        0x0 c:/intelfpga_lite/20.1/nios2eds/bin/gnu/h-x86_64-mingw32/bin/../lib/gcc/nios2-elf/10.1.1/../../../../../H-x86_64-mingw32/nios2-elf/lib/mno-hw-mul\libc.a(lib_a-mbtowc_r.o)
 .data          0x000000000000111c        0x0 c:/intelfpga_lite/20.1/nios2eds/bin/gnu/h-x86_64-mingw32/bin/../lib/gcc/nios2-elf/10.1.1/../../../../../H-x86_64-mingw32/nios2-elf/lib/mno-hw-mul\libc.a(lib_a-readr.o)
 .data          0x000000000000111c        0x0 c:/intelfpga_lite/20.1/nios2eds/bin/gnu/h-x86_64-mingw32/bin/../lib/gcc/nios2-elf/10.1.1/../../../../../H-x86_64-mingw32/nios2-elf/lib/mno-hw-mul\libc.a(lib_a-strcmp.o)
 .data          0x000000000000111c        0x0 c:/intelfpga_lite/20.1/nios2eds/bin/gnu/h-x86_64-mingw32/bin/../lib/gcc/nios2-elf/10.1.1/../../../../../H-x86_64-mingw32/nios2-elf/lib/mno-hw-mul\libc.a(lib_a-vfiprintfr_1.o)
 .data          0x000000000000111c        0x0 c:/intelfpga_lite/20.1/nios2eds/bin/gnu/h-x86_64-mingw32/bin/../lib/gcc/nios2-elf/10.1.1/../../../../../H-x86_64-mingw32/nios2-elf/lib/mno-hw-mul\libc.a(lib_a-wcrtomb.o)
 .data          0x000000000000111c        0x0 c:/intelfpga_lite/20.1/nios2eds/bin/gnu/h-x86_64-mingw32/bin/../lib/gcc/nios2-elf/10.1.1/../../../../../H-x86_64-mingw32/nios2-elf/lib/mno-hw-mul\libc.a(lib_a-wctomb_r.o)
 .data          0x000000000000111c        0x0 c:/intelfpga_lite/20.1/nios2eds/bin/gnu/h-x86_64-mingw32/bin/../lib/gcc/nios2-elf/10.1.1/../../../../../H-x86_64-mingw32/nios2-elf/lib/mno-hw-mul\libc.a(lib_a-abort.o)
 .data          0x000000000000111c        0x0 c:/intelfpga_lite/20.1/nios2eds/bin/gnu/h-x86_64-mingw32/bin/../lib/gcc/nios2-elf/10.1.1/../../../../../H-x86_64-mingw32/nios2-elf/lib/mno-hw-mul\libc.a(lib_a-ctype_.o)
 .data          0x000000000000111c        0x0 c:/intelfpga_lite/20.1/nios2eds/bin/gnu/h-x86_64-mingw32/bin/../lib/gcc/nios2-elf/10.1.1/../../../../../H-x86_64-mingw32/nios2-elf/lib/mno-hw-mul\libc.a(lib_a-signal.o)
 .data          0x000000000000111c        0x0 c:/intelfpga_lite/20.1/nios2eds/bin/gnu/h-x86_64-mingw32/bin/../lib/gcc/nios2-elf/10.1.1/../../../../../H-x86_64-mingw32/nios2-elf/lib/mno-hw-mul\libc.a(lib_a-signalr.o)
 .data          0x000000000000111c        0x0 c:/intelfpga_lite/20.1/nios2eds/bin/gnu/h-x86_64-mingw32/bin/../lib/gcc/nios2-elf/10.1.1/mno-hw-mul\libgcc.a(_muldi3.o)
 .data          0x000000000000111c        0x0 c:/intelfpga_lite/20.1/nios2eds/bin/gnu/h-x86_64-mingw32/bin/../lib/gcc/nios2-elf/10.1.1/mno-hw-mul\libgcc.a(_udivdi3.o)
 .data          0x000000000000111c        0x0 c:/intelfpga_lite/20.1/nios2eds/bin/gnu/h-x86_64-mingw32/bin/../lib/gcc/nios2-elf/10.1.1/mno-hw-mul\libgcc.a(_umoddi3.o)
 .data          0x000000000000111c        0x0 c:/intelfpga_lite/20.1/nios2eds/bin/gnu/h-x86_64-mingw32/bin/../lib/gcc/nios2-elf/10.1.1/mno-hw-mul\libgcc.a(adddf3.o)
 .data          0x000000000000111c        0x0 c:/intelfpga_lite/20.1/nios2eds/bin/gnu/h-x86_64-mingw32/bin/../lib/gcc/nios2-elf/10.1.1/mno-hw-mul\libgcc.a(divdf3.o)
 .data          0x000000000000111c        0x0 c:/intelfpga_lite/20.1/nios2eds/bin/gnu/h-x86_64-mingw32/bin/../lib/gcc/nios2-elf/10.1.1/mno-hw-mul\libgcc.a(eqdf2.o)
 .data          0x000000000000111c        0x0 c:/intelfpga_lite/20.1/nios2eds/bin/gnu/h-x86_64-mingw32/bin/../lib/gcc/nios2-elf/10.1.1/mno-hw-mul\libgcc.a(gedf2.o)
 .data          0x000000000000111c        0x0 c:/intelfpga_lite/20.1/nios2eds/bin/gnu/h-x86_64-mingw32/bin/../lib/gcc/nios2-elf/10.1.1/mno-hw-mul\libgcc.a(ledf2.o)
 .data          0x000000000000111c        0x0 c:/intelfpga_lite/20.1/nios2eds/bin/gnu/h-x86_64-mingw32/bin/../lib/gcc/nios2-elf/10.1.1/mno-hw-mul\libgcc.a(muldf3.o)
 .data          0x000000000000111c        0x0 c:/intelfpga_lite/20.1/nios2eds/bin/gnu/h-x86_64-mingw32/bin/../lib/gcc/nios2-elf/10.1.1/mno-hw-mul\libgcc.a(subdf3.o)
 .data          0x000000000000111c        0x0 c:/intelfpga_lite/20.1/nios2eds/bin/gnu/h-x86_64-mingw32/bin/../lib/gcc/nios2-elf/10.1.1/mno-hw-mul\libgcc.a(unorddf2.o)
 .data          0x000000000000111c        0x0 c:/intelfpga_lite/20.1/nios2eds/bin/gnu/h-x86_64-mingw32/bin/../lib/gcc/nios2-elf/10.1.1/mno-hw-mul\libgcc.a(fixdfsi.o)
 .data          0x000000000000111c        0x0 c:/intelfpga_lite/20.1/nios2eds/bin/gnu/h-x86_64-mingw32/bin/../lib/gcc/nios2-elf/10.1.1/mno-hw-mul\libgcc.a(floatsidf.o)
 .data          0x000000000000111c        0x0 c:/intelfpga_lite/20.1/nios2eds/bin/gnu/h-x86_64-mingw32/bin/../lib/gcc/nios2-elf/10.1.1/mno-hw-mul\libgcc.a(floatunsidf.o)
 .data          0x000000000000111c        0x0 c:/intelfpga_lite/20.1/nios2eds/bin/gnu/h-x86_64-mingw32/bin/../lib/gcc/nios2-elf/10.1.1/mno-hw-mul\libgcc.a(_clz.o)
 .data          0x000000000000111c        0x0 c:/intelfpga_lite/20.1/nios2eds/bin/gnu/h-x86_64-mingw32/bin/../lib/gcc/nios2-elf/10.1.1/mno-hw-mul\libgcc.a(_clzsi2.o)
 .data          0x000000000000111c        0x0 c:/fpga/DE1-SoC_v.5.1.3_HWrevF.revG_SystemCD/Demonstrations/FPGA/DE1_SoC_SDRAM_Nios_Test/software/sdram_nios_test_v2_bsp/\libhal_bsp.a(alt_close.o)
 .data          0x000000000000111c        0x0 c:/fpga/DE1-SoC_v.5.1.3_HWrevF.revG_SystemCD/Demonstrations/FPGA/DE1_SoC_SDRAM_Nios_Test/software/sdram_nios_test_v2_bsp/\libhal_bsp.a(alt_dcache_flush_all.o)
 .data          0x000000000000111c      0x1a8 c:/fpga/DE1-SoC_v.5.1.3_HWrevF.revG_SystemCD/Demonstrations/FPGA/DE1_SoC_SDRAM_Nios_Test/software/sdram_nios_test_v2_bsp/\libhal_bsp.a(alt_dev.o)
                0x000000000000111c                alt_dev_null
                0x0000000000001144                alt_fd_list
 .data          0x00000000000012c4        0x0 c:/fpga/DE1-SoC_v.5.1.3_HWrevF.revG_SystemCD/Demonstrations/FPGA/DE1_SoC_SDRAM_Nios_Test/software/sdram_nios_test_v2_bsp/\libhal_bsp.a(alt_errno.o)
 .data          0x00000000000012c4        0x0 c:/fpga/DE1-SoC_v.5.1.3_HWrevF.revG_SystemCD/Demonstrations/FPGA/DE1_SoC_SDRAM_Nios_Test/software/sdram_nios_test_v2_bsp/\libhal_bsp.a(alt_exit.o)
 .data          0x00000000000012c4        0x0 c:/fpga/DE1-SoC_v.5.1.3_HWrevF.revG_SystemCD/Demonstrations/FPGA/DE1_SoC_SDRAM_Nios_Test/software/sdram_nios_test_v2_bsp/\libhal_bsp.a(alt_fstat.o)
 .data          0x00000000000012c4        0x0 c:/fpga/DE1-SoC_v.5.1.3_HWrevF.revG_SystemCD/Demonstrations/FPGA/DE1_SoC_SDRAM_Nios_Test/software/sdram_nios_test_v2_bsp/\libhal_bsp.a(alt_getpid.o)
 .data          0x00000000000012c4        0x0 c:/fpga/DE1-SoC_v.5.1.3_HWrevF.revG_SystemCD/Demonstrations/FPGA/DE1_SoC_SDRAM_Nios_Test/software/sdram_nios_test_v2_bsp/\libhal_bsp.a(alt_isatty.o)
 .data          0x00000000000012c4        0x0 c:/fpga/DE1-SoC_v.5.1.3_HWrevF.revG_SystemCD/Demonstrations/FPGA/DE1_SoC_SDRAM_Nios_Test/software/sdram_nios_test_v2_bsp/\libhal_bsp.a(alt_kill.o)
 .data          0x00000000000012c4        0x0 c:/fpga/DE1-SoC_v.5.1.3_HWrevF.revG_SystemCD/Demonstrations/FPGA/DE1_SoC_SDRAM_Nios_Test/software/sdram_nios_test_v2_bsp/\libhal_bsp.a(alt_load.o)
 .data          0x00000000000012c4        0x0 c:/fpga/DE1-SoC_v.5.1.3_HWrevF.revG_SystemCD/Demonstrations/FPGA/DE1_SoC_SDRAM_Nios_Test/software/sdram_nios_test_v2_bsp/\libhal_bsp.a(alt_lseek.o)
 .data          0x00000000000012c4        0x0 c:/fpga/DE1-SoC_v.5.1.3_HWrevF.revG_SystemCD/Demonstrations/FPGA/DE1_SoC_SDRAM_Nios_Test/software/sdram_nios_test_v2_bsp/\libhal_bsp.a(alt_main.o)
 .data          0x00000000000012c4        0x0 c:/fpga/DE1-SoC_v.5.1.3_HWrevF.revG_SystemCD/Demonstrations/FPGA/DE1_SoC_SDRAM_Nios_Test/software/sdram_nios_test_v2_bsp/\libhal_bsp.a(alt_malloc_lock.o)
 .data          0x00000000000012c4        0x0 c:/fpga/DE1-SoC_v.5.1.3_HWrevF.revG_SystemCD/Demonstrations/FPGA/DE1_SoC_SDRAM_Nios_Test/software/sdram_nios_test_v2_bsp/\libhal_bsp.a(alt_read.o)
 .data          0x00000000000012c4        0x0 c:/fpga/DE1-SoC_v.5.1.3_HWrevF.revG_SystemCD/Demonstrations/FPGA/DE1_SoC_SDRAM_Nios_Test/software/sdram_nios_test_v2_bsp/\libhal_bsp.a(alt_release_fd.o)
 .data          0x00000000000012c4        0x0 c:/fpga/DE1-SoC_v.5.1.3_HWrevF.revG_SystemCD/Demonstrations/FPGA/DE1_SoC_SDRAM_Nios_Test/software/sdram_nios_test_v2_bsp/\libhal_bsp.a(alt_sbrk.o)
 .data          0x00000000000012c4        0x0 c:/fpga/DE1-SoC_v.5.1.3_HWrevF.revG_SystemCD/Demonstrations/FPGA/DE1_SoC_SDRAM_Nios_Test/software/sdram_nios_test_v2_bsp/\libhal_bsp.a(alt_tick.o)
 .data          0x00000000000012c4        0x0 c:/fpga/DE1-SoC_v.5.1.3_HWrevF.revG_SystemCD/Demonstrations/FPGA/DE1_SoC_SDRAM_Nios_Test/software/sdram_nios_test_v2_bsp/\libhal_bsp.a(alt_usleep.o)
 .data          0x00000000000012c4        0x0 c:/fpga/DE1-SoC_v.5.1.3_HWrevF.revG_SystemCD/Demonstrations/FPGA/DE1_SoC_SDRAM_Nios_Test/software/sdram_nios_test_v2_bsp/\libhal_bsp.a(alt_write.o)
 .data          0x00000000000012c4     0x1060 c:/fpga/DE1-SoC_v.5.1.3_HWrevF.revG_SystemCD/Demonstrations/FPGA/DE1_SoC_SDRAM_Nios_Test/software/sdram_nios_test_v2_bsp/\libhal_bsp.a(alt_sys_init.o)
 .data          0x0000000000002324        0x0 c:/fpga/DE1-SoC_v.5.1.3_HWrevF.revG_SystemCD/Demonstrations/FPGA/DE1_SoC_SDRAM_Nios_Test/software/sdram_nios_test_v2_bsp/\libhal_bsp.a(altera_avalon_jtag_uart_fd.o)
 .data          0x0000000000002324        0x0 c:/fpga/DE1-SoC_v.5.1.3_HWrevF.revG_SystemCD/Demonstrations/FPGA/DE1_SoC_SDRAM_Nios_Test/software/sdram_nios_test_v2_bsp/\libhal_bsp.a(altera_avalon_jtag_uart_init.o)
 .data          0x0000000000002324        0x0 c:/fpga/DE1-SoC_v.5.1.3_HWrevF.revG_SystemCD/Demonstrations/FPGA/DE1_SoC_SDRAM_Nios_Test/software/sdram_nios_test_v2_bsp/\libhal_bsp.a(altera_avalon_jtag_uart_ioctl.o)
 .data          0x0000000000002324        0x0 c:/fpga/DE1-SoC_v.5.1.3_HWrevF.revG_SystemCD/Demonstrations/FPGA/DE1_SoC_SDRAM_Nios_Test/software/sdram_nios_test_v2_bsp/\libhal_bsp.a(altera_avalon_jtag_uart_read.o)
 .data          0x0000000000002324        0x0 c:/fpga/DE1-SoC_v.5.1.3_HWrevF.revG_SystemCD/Demonstrations/FPGA/DE1_SoC_SDRAM_Nios_Test/software/sdram_nios_test_v2_bsp/\libhal_bsp.a(altera_avalon_jtag_uart_write.o)
 .data          0x0000000000002324        0x0 c:/fpga/DE1-SoC_v.5.1.3_HWrevF.revG_SystemCD/Demonstrations/FPGA/DE1_SoC_SDRAM_Nios_Test/software/sdram_nios_test_v2_bsp/\libhal_bsp.a(altera_avalon_timer_sc.o)
 .data          0x0000000000002324        0x0 c:/fpga/DE1-SoC_v.5.1.3_HWrevF.revG_SystemCD/Demonstrations/FPGA/DE1_SoC_SDRAM_Nios_Test/software/sdram_nios_test_v2_bsp/\libhal_bsp.a(alt_alarm_start.o)
 .data          0x0000000000002324        0x0 c:/fpga/DE1-SoC_v.5.1.3_HWrevF.revG_SystemCD/Demonstrations/FPGA/DE1_SoC_SDRAM_Nios_Test/software/sdram_nios_test_v2_bsp/\libhal_bsp.a(alt_busy_sleep.o)
 .data          0x0000000000002324        0x0 c:/fpga/DE1-SoC_v.5.1.3_HWrevF.revG_SystemCD/Demonstrations/FPGA/DE1_SoC_SDRAM_Nios_Test/software/sdram_nios_test_v2_bsp/\libhal_bsp.a(alt_dev_llist_insert.o)
 .data          0x0000000000002324        0x0 c:/fpga/DE1-SoC_v.5.1.3_HWrevF.revG_SystemCD/Demonstrations/FPGA/DE1_SoC_SDRAM_Nios_Test/software/sdram_nios_test_v2_bsp/\libhal_bsp.a(alt_do_ctors.o)
 .data          0x0000000000002324        0x0 c:/fpga/DE1-SoC_v.5.1.3_HWrevF.revG_SystemCD/Demonstrations/FPGA/DE1_SoC_SDRAM_Nios_Test/software/sdram_nios_test_v2_bsp/\libhal_bsp.a(alt_do_dtors.o)
 .data          0x0000000000002324        0x0 c:/fpga/DE1-SoC_v.5.1.3_HWrevF.revG_SystemCD/Demonstrations/FPGA/DE1_SoC_SDRAM_Nios_Test/software/sdram_nios_test_v2_bsp/\libhal_bsp.a(alt_icache_flush_all.o)
 .data          0x0000000000002324        0x0 c:/fpga/DE1-SoC_v.5.1.3_HWrevF.revG_SystemCD/Demonstrations/FPGA/DE1_SoC_SDRAM_Nios_Test/software/sdram_nios_test_v2_bsp/\libhal_bsp.a(alt_iic.o)
 .data          0x0000000000002324        0x0 c:/fpga/DE1-SoC_v.5.1.3_HWrevF.revG_SystemCD/Demonstrations/FPGA/DE1_SoC_SDRAM_Nios_Test/software/sdram_nios_test_v2_bsp/\libhal_bsp.a(alt_iic_isr_register.o)
 .data          0x0000000000002324        0x0 c:/fpga/DE1-SoC_v.5.1.3_HWrevF.revG_SystemCD/Demonstrations/FPGA/DE1_SoC_SDRAM_Nios_Test/software/sdram_nios_test_v2_bsp/\libhal_bsp.a(alt_io_redirect.o)
 .data          0x0000000000002324        0x0 c:/fpga/DE1-SoC_v.5.1.3_HWrevF.revG_SystemCD/Demonstrations/FPGA/DE1_SoC_SDRAM_Nios_Test/software/sdram_nios_test_v2_bsp/\libhal_bsp.a(alt_irq_entry.o)
 .data          0x0000000000002324        0x0 c:/fpga/DE1-SoC_v.5.1.3_HWrevF.revG_SystemCD/Demonstrations/FPGA/DE1_SoC_SDRAM_Nios_Test/software/sdram_nios_test_v2_bsp/\libhal_bsp.a(alt_irq_handler.o)
 .data          0x0000000000002324        0x0 c:/fpga/DE1-SoC_v.5.1.3_HWrevF.revG_SystemCD/Demonstrations/FPGA/DE1_SoC_SDRAM_Nios_Test/software/sdram_nios_test_v2_bsp/\libhal_bsp.a(alt_irq_vars.o)
 .data          0x0000000000002324        0x0 c:/fpga/DE1-SoC_v.5.1.3_HWrevF.revG_SystemCD/Demonstrations/FPGA/DE1_SoC_SDRAM_Nios_Test/software/sdram_nios_test_v2_bsp/\libhal_bsp.a(alt_open.o)
 .data          0x0000000000002324        0x0 c:/fpga/DE1-SoC_v.5.1.3_HWrevF.revG_SystemCD/Demonstrations/FPGA/DE1_SoC_SDRAM_Nios_Test/software/sdram_nios_test_v2_bsp/\libhal_bsp.a(altera_nios2_gen2_irq.o)
 .data          0x0000000000002324        0x0 c:/fpga/DE1-SoC_v.5.1.3_HWrevF.revG_SystemCD/Demonstrations/FPGA/DE1_SoC_SDRAM_Nios_Test/software/sdram_nios_test_v2_bsp/\libhal_bsp.a(alt_exception_entry.o)
 .data          0x0000000000002324        0x0 c:/fpga/DE1-SoC_v.5.1.3_HWrevF.revG_SystemCD/Demonstrations/FPGA/DE1_SoC_SDRAM_Nios_Test/software/sdram_nios_test_v2_bsp/\libhal_bsp.a(alt_find_dev.o)
 .data          0x0000000000002324        0x0 c:/fpga/DE1-SoC_v.5.1.3_HWrevF.revG_SystemCD/Demonstrations/FPGA/DE1_SoC_SDRAM_Nios_Test/software/sdram_nios_test_v2_bsp/\libhal_bsp.a(alt_find_file.o)
 .data          0x0000000000002324        0x0 c:/fpga/DE1-SoC_v.5.1.3_HWrevF.revG_SystemCD/Demonstrations/FPGA/DE1_SoC_SDRAM_Nios_Test/software/sdram_nios_test_v2_bsp/\libhal_bsp.a(alt_get_fd.o)
 .data          0x0000000000002324        0x0 c:/fpga/DE1-SoC_v.5.1.3_HWrevF.revG_SystemCD/Demonstrations/FPGA/DE1_SoC_SDRAM_Nios_Test/software/sdram_nios_test_v2_bsp/\libhal_bsp.a(alt_instruction_exception_entry.o)
 .data          0x0000000000002324        0x0 c:/intelfpga_lite/20.1/nios2eds/bin/gnu/h-x86_64-mingw32/bin/../lib/gcc/nios2-elf/10.1.1/../../../../../H-x86_64-mingw32/nios2-elf/lib/mno-hw-mul\libc.a(lib_a-atexit.o)
 .data          0x0000000000002324        0x0 c:/intelfpga_lite/20.1/nios2eds/bin/gnu/h-x86_64-mingw32/bin/../lib/gcc/nios2-elf/10.1.1/../../../../../H-x86_64-mingw32/nios2-elf/lib/mno-hw-mul\libc.a(lib_a-exit.o)
 .data          0x0000000000002324        0x0 c:/intelfpga_lite/20.1/nios2eds/bin/gnu/h-x86_64-mingw32/bin/../lib/gcc/nios2-elf/10.1.1/../../../../../H-x86_64-mingw32/nios2-elf/lib/mno-hw-mul\libc.a(lib_a-memcmp.o)
 .data          0x0000000000002324        0x0 c:/intelfpga_lite/20.1/nios2eds/bin/gnu/h-x86_64-mingw32/bin/../lib/gcc/nios2-elf/10.1.1/../../../../../H-x86_64-mingw32/nios2-elf/lib/mno-hw-mul\libc.a(lib_a-__atexit.o)
 .data          0x0000000000002324        0x0 c:/intelfpga_lite/20.1/nios2eds/bin/gnu/h-x86_64-mingw32/bin/../lib/gcc/nios2-elf/10.1.1/../../../../../H-x86_64-mingw32/nios2-elf/lib/mno-hw-mul\libc.a(lib_a-__call_atexit.o)
                0x000000000000a324                _gp = ABSOLUTE ((. + 0x8000))
                [!provide]                        PROVIDE (gp = _gp)
 *(.rwdata .rwdata.*)
 *(.sdata .sdata.* .gnu.linkonce.s.*)
 .sdata._global_impure_ptr
                0x0000000000002324        0x4 c:/intelfpga_lite/20.1/nios2eds/bin/gnu/h-x86_64-mingw32/bin/../lib/gcc/nios2-elf/10.1.1/../../../../../H-x86_64-mingw32/nios2-elf/lib/mno-hw-mul\libc.a(lib_a-impure.o)
                0x0000000000002324                _global_impure_ptr
 .sdata._impure_ptr
                0x0000000000002328        0x4 c:/intelfpga_lite/20.1/nios2eds/bin/gnu/h-x86_64-mingw32/bin/../lib/gcc/nios2-elf/10.1.1/../../../../../H-x86_64-mingw32/nios2-elf/lib/mno-hw-mul\libc.a(lib_a-impure.o)
                0x0000000000002328                _impure_ptr
 .sdata.__malloc_sbrk_base
                0x000000000000232c        0x4 c:/intelfpga_lite/20.1/nios2eds/bin/gnu/h-x86_64-mingw32/bin/../lib/gcc/nios2-elf/10.1.1/../../../../../H-x86_64-mingw32/nios2-elf/lib/mno-hw-mul\libc.a(lib_a-mallocr.o)
                0x000000000000232c                __malloc_sbrk_base
 .sdata.__malloc_trim_threshold
                0x0000000000002330        0x4 c:/intelfpga_lite/20.1/nios2eds/bin/gnu/h-x86_64-mingw32/bin/../lib/gcc/nios2-elf/10.1.1/../../../../../H-x86_64-mingw32/nios2-elf/lib/mno-hw-mul\libc.a(lib_a-mallocr.o)
                0x0000000000002330                __malloc_trim_threshold
 .sdata         0x0000000000002334       0x14 c:/fpga/DE1-SoC_v.5.1.3_HWrevF.revG_SystemCD/Demonstrations/FPGA/DE1_SoC_SDRAM_Nios_Test/software/sdram_nios_test_v2_bsp/\libhal_bsp.a(alt_dev.o)
                0x0000000000002334                alt_fs_list
                0x000000000000233c                alt_dev_list
                0x0000000000002344                alt_max_fd
 .sdata         0x0000000000002348        0x4 c:/fpga/DE1-SoC_v.5.1.3_HWrevF.revG_SystemCD/Demonstrations/FPGA/DE1_SoC_SDRAM_Nios_Test/software/sdram_nios_test_v2_bsp/\libhal_bsp.a(alt_errno.o)
                0x0000000000002348                alt_errno
 .sdata         0x000000000000234c        0x4 c:/fpga/DE1-SoC_v.5.1.3_HWrevF.revG_SystemCD/Demonstrations/FPGA/DE1_SoC_SDRAM_Nios_Test/software/sdram_nios_test_v2_bsp/\libhal_bsp.a(alt_sbrk.o)
 .sdata         0x0000000000002350        0x8 c:/fpga/DE1-SoC_v.5.1.3_HWrevF.revG_SystemCD/Demonstrations/FPGA/DE1_SoC_SDRAM_Nios_Test/software/sdram_nios_test_v2_bsp/\libhal_bsp.a(alt_tick.o)
                0x0000000000002350                alt_alarm_list
 .sdata         0x0000000000002358        0x4 c:/fpga/DE1-SoC_v.5.1.3_HWrevF.revG_SystemCD/Demonstrations/FPGA/DE1_SoC_SDRAM_Nios_Test/software/sdram_nios_test_v2_bsp/\libhal_bsp.a(alt_irq_vars.o)
                0x0000000000002358                alt_priority_mask
 *(.sdata2 .sdata2.* .gnu.linkonce.s2.*)
                0x000000000000235c                . = ALIGN (0x4)
                0x000000000000235c                _edata = ABSOLUTE (.)
                [!provide]                        PROVIDE (edata = ABSOLUTE (.))
                0x000000000000235c                PROVIDE (__ram_rwdata_end = ABSOLUTE (.))
                0x0000000004031120                PROVIDE (__flash_rwdata_start = LOADADDR (.rwdata))

.bss            0x000000000000235c      0x158 load address 0x0000000004032cf8
                0x000000000000235c                __bss_start = ABSOLUTE (.)
                [!provide]                        PROVIDE (__sbss_start = ABSOLUTE (.))
                [!provide]                        PROVIDE (___sbss_start = ABSOLUTE (.))
 *(.dynsbss)
 *(.sbss .sbss.* .gnu.linkonce.sb.*)
 .sbss.__malloc_max_total_mem
                0x000000000000235c        0x4 c:/intelfpga_lite/20.1/nios2eds/bin/gnu/h-x86_64-mingw32/bin/../lib/gcc/nios2-elf/10.1.1/../../../../../H-x86_64-mingw32/nios2-elf/lib/mno-hw-mul\libc.a(lib_a-mallocr.o)
                0x000000000000235c                __malloc_max_total_mem
 .sbss.__malloc_max_sbrked_mem
                0x0000000000002360        0x4 c:/intelfpga_lite/20.1/nios2eds/bin/gnu/h-x86_64-mingw32/bin/../lib/gcc/nios2-elf/10.1.1/../../../../../H-x86_64-mingw32/nios2-elf/lib/mno-hw-mul\libc.a(lib_a-mallocr.o)
                0x0000000000002360                __malloc_max_sbrked_mem
 .sbss.__malloc_top_pad
                0x0000000000002364        0x4 c:/intelfpga_lite/20.1/nios2eds/bin/gnu/h-x86_64-mingw32/bin/../lib/gcc/nios2-elf/10.1.1/../../../../../H-x86_64-mingw32/nios2-elf/lib/mno-hw-mul\libc.a(lib_a-mallocr.o)
                0x0000000000002364                __malloc_top_pad
 .sbss.errno    0x0000000000002368        0x4 c:/intelfpga_lite/20.1/nios2eds/bin/gnu/h-x86_64-mingw32/bin/../lib/gcc/nios2-elf/10.1.1/../../../../../H-x86_64-mingw32/nios2-elf/lib/mno-hw-mul\libc.a(lib_a-int_errno.o)
                0x0000000000002368                errno
 .sbss._PathLocale
                0x000000000000236c        0x4 c:/intelfpga_lite/20.1/nios2eds/bin/gnu/h-x86_64-mingw32/bin/../lib/gcc/nios2-elf/10.1.1/../../../../../H-x86_64-mingw32/nios2-elf/lib/mno-hw-mul\libc.a(lib_a-locale.o)
                0x000000000000236c                _PathLocale
 .sbss          0x0000000000002370        0xc c:/fpga/DE1-SoC_v.5.1.3_HWrevF.revG_SystemCD/Demonstrations/FPGA/DE1_SoC_SDRAM_Nios_Test/software/sdram_nios_test_v2_bsp/\libhal_bsp.a(alt_main.o)
                0x0000000000002370                alt_argc
                0x0000000000002374                alt_argv
                0x0000000000002378                alt_envp
 .sbss          0x000000000000237c        0x8 c:/fpga/DE1-SoC_v.5.1.3_HWrevF.revG_SystemCD/Demonstrations/FPGA/DE1_SoC_SDRAM_Nios_Test/software/sdram_nios_test_v2_bsp/\libhal_bsp.a(alt_tick.o)
                0x000000000000237c                _alt_tick_rate
                0x0000000000002380                _alt_nticks
 .sbss          0x0000000000002384        0x4 c:/fpga/DE1-SoC_v.5.1.3_HWrevF.revG_SystemCD/Demonstrations/FPGA/DE1_SoC_SDRAM_Nios_Test/software/sdram_nios_test_v2_bsp/\libhal_bsp.a(alt_irq_vars.o)
                0x0000000000002384                alt_irq_active
 .sbss          0x0000000000002388        0x4 c:/fpga/DE1-SoC_v.5.1.3_HWrevF.revG_SystemCD/Demonstrations/FPGA/DE1_SoC_SDRAM_Nios_Test/software/sdram_nios_test_v2_bsp/\libhal_bsp.a(alt_instruction_exception_entry.o)
                0x0000000000002388                alt_instruction_exception_handler
 *(.sbss2 .sbss2.* .gnu.linkonce.sb2.*)
 *(.scommon)
                [!provide]                        PROVIDE (__sbss_end = ABSOLUTE (.))
                [!provide]                        PROVIDE (___sbss_end = ABSOLUTE (.))
 *(.dynbss)
 *(.bss .bss.* .gnu.linkonce.b.*)
 .bss           0x000000000000238c        0x0 c:/fpga/DE1-SoC_v.5.1.3_HWrevF.revG_SystemCD/Demonstrations/FPGA/DE1_SoC_SDRAM_Nios_Test/software/sdram_nios_test_v2_bsp//obj/HAL/src/crt0.o
 .bss           0x000000000000238c        0x0 obj/default/main.o
 .bss           0x000000000000238c        0x0 obj/default/mem_verify.o
 .bss           0x000000000000238c        0x0 c:/intelfpga_lite/20.1/nios2eds/bin/gnu/h-x86_64-mingw32/bin/../lib/gcc/nios2-elf/10.1.1/mno-hw-mul\libgcc.a(lib2-divmod.o)
 .bss           0x000000000000238c        0x0 c:/intelfpga_lite/20.1/nios2eds/bin/gnu/h-x86_64-mingw32/bin/../lib/gcc/nios2-elf/10.1.1/mno-hw-mul\libgcc.a(lib2-mul.o)
 .bss           0x000000000000238c        0x0 c:/intelfpga_lite/20.1/nios2eds/bin/gnu/h-x86_64-mingw32/bin/../lib/gcc/nios2-elf/10.1.1/../../../../../H-x86_64-mingw32/nios2-elf/lib/mno-hw-mul\libc.a(lib_a-memcpy.o)
 .bss           0x000000000000238c        0x0 c:/intelfpga_lite/20.1/nios2eds/bin/gnu/h-x86_64-mingw32/bin/../lib/gcc/nios2-elf/10.1.1/../../../../../H-x86_64-mingw32/nios2-elf/lib/mno-hw-mul\libc.a(lib_a-printf.o)
 .bss           0x000000000000238c        0x0 c:/intelfpga_lite/20.1/nios2eds/bin/gnu/h-x86_64-mingw32/bin/../lib/gcc/nios2-elf/10.1.1/../../../../../H-x86_64-mingw32/nios2-elf/lib/mno-hw-mul\libc.a(lib_a-putchar.o)
 .bss           0x000000000000238c        0x0 c:/intelfpga_lite/20.1/nios2eds/bin/gnu/h-x86_64-mingw32/bin/../lib/gcc/nios2-elf/10.1.1/../../../../../H-x86_64-mingw32/nios2-elf/lib/mno-hw-mul\libc.a(lib_a-puts.o)
 .bss           0x000000000000238c        0x0 c:/intelfpga_lite/20.1/nios2eds/bin/gnu/h-x86_64-mingw32/bin/../lib/gcc/nios2-elf/10.1.1/../../../../../H-x86_64-mingw32/nios2-elf/lib/mno-hw-mul\libc.a(lib_a-rand.o)
 .bss           0x000000000000238c        0x0 c:/intelfpga_lite/20.1/nios2eds/bin/gnu/h-x86_64-mingw32/bin/../lib/gcc/nios2-elf/10.1.1/../../../../../H-x86_64-mingw32/nios2-elf/lib/mno-hw-mul\libc.a(lib_a-strlen.o)
 .bss           0x000000000000238c        0x0 c:/intelfpga_lite/20.1/nios2eds/bin/gnu/h-x86_64-mingw32/bin/../lib/gcc/nios2-elf/10.1.1/../../../../../H-x86_64-mingw32/nios2-elf/lib/mno-hw-mul\libc.a(lib_a-vfprintf.o)
 .bss           0x000000000000238c        0x0 c:/intelfpga_lite/20.1/nios2eds/bin/gnu/h-x86_64-mingw32/bin/../lib/gcc/nios2-elf/10.1.1/../../../../../H-x86_64-mingw32/nios2-elf/lib/mno-hw-mul\libc.a(lib_a-wsetup.o)
 .bss           0x000000000000238c        0x0 c:/intelfpga_lite/20.1/nios2eds/bin/gnu/h-x86_64-mingw32/bin/../lib/gcc/nios2-elf/10.1.1/../../../../../H-x86_64-mingw32/nios2-elf/lib/mno-hw-mul\libc.a(lib_a-dtoa.o)
 .bss           0x000000000000238c        0x0 c:/intelfpga_lite/20.1/nios2eds/bin/gnu/h-x86_64-mingw32/bin/../lib/gcc/nios2-elf/10.1.1/../../../../../H-x86_64-mingw32/nios2-elf/lib/mno-hw-mul\libc.a(lib_a-fflush.o)
 .bss           0x000000000000238c        0x0 c:/intelfpga_lite/20.1/nios2eds/bin/gnu/h-x86_64-mingw32/bin/../lib/gcc/nios2-elf/10.1.1/../../../../../H-x86_64-mingw32/nios2-elf/lib/mno-hw-mul\libc.a(lib_a-findfp.o)
 .bss           0x000000000000238c        0x0 c:/intelfpga_lite/20.1/nios2eds/bin/gnu/h-x86_64-mingw32/bin/../lib/gcc/nios2-elf/10.1.1/../../../../../H-x86_64-mingw32/nios2-elf/lib/mno-hw-mul\libc.a(lib_a-freer.o)
 .bss           0x000000000000238c        0x0 c:/intelfpga_lite/20.1/nios2eds/bin/gnu/h-x86_64-mingw32/bin/../lib/gcc/nios2-elf/10.1.1/../../../../../H-x86_64-mingw32/nios2-elf/lib/mno-hw-mul\libc.a(lib_a-fvwrite.o)
 .bss           0x000000000000238c        0x0 c:/intelfpga_lite/20.1/nios2eds/bin/gnu/h-x86_64-mingw32/bin/../lib/gcc/nios2-elf/10.1.1/../../../../../H-x86_64-mingw32/nios2-elf/lib/mno-hw-mul\libc.a(lib_a-fwalk.o)
 .bss           0x000000000000238c        0x0 c:/intelfpga_lite/20.1/nios2eds/bin/gnu/h-x86_64-mingw32/bin/../lib/gcc/nios2-elf/10.1.1/../../../../../H-x86_64-mingw32/nios2-elf/lib/mno-hw-mul\libc.a(lib_a-impure.o)
 .bss           0x000000000000238c        0x0 c:/intelfpga_lite/20.1/nios2eds/bin/gnu/h-x86_64-mingw32/bin/../lib/gcc/nios2-elf/10.1.1/../../../../../H-x86_64-mingw32/nios2-elf/lib/mno-hw-mul\libc.a(lib_a-localeconv.o)
 .bss           0x000000000000238c        0x0 c:/intelfpga_lite/20.1/nios2eds/bin/gnu/h-x86_64-mingw32/bin/../lib/gcc/nios2-elf/10.1.1/../../../../../H-x86_64-mingw32/nios2-elf/lib/mno-hw-mul\libc.a(lib_a-makebuf.o)
 .bss           0x000000000000238c        0x0 c:/intelfpga_lite/20.1/nios2eds/bin/gnu/h-x86_64-mingw32/bin/../lib/gcc/nios2-elf/10.1.1/../../../../../H-x86_64-mingw32/nios2-elf/lib/mno-hw-mul\libc.a(lib_a-mallocr.o)
 .bss.__malloc_current_mallinfo
                0x000000000000238c       0x28 c:/intelfpga_lite/20.1/nios2eds/bin/gnu/h-x86_64-mingw32/bin/../lib/gcc/nios2-elf/10.1.1/../../../../../H-x86_64-mingw32/nios2-elf/lib/mno-hw-mul\libc.a(lib_a-mallocr.o)
                0x000000000000238c                __malloc_current_mallinfo
 .bss           0x00000000000023b4        0x0 c:/intelfpga_lite/20.1/nios2eds/bin/gnu/h-x86_64-mingw32/bin/../lib/gcc/nios2-elf/10.1.1/../../../../../H-x86_64-mingw32/nios2-elf/lib/mno-hw-mul\libc.a(lib_a-memchr.o)
 .bss           0x00000000000023b4        0x0 c:/intelfpga_lite/20.1/nios2eds/bin/gnu/h-x86_64-mingw32/bin/../lib/gcc/nios2-elf/10.1.1/../../../../../H-x86_64-mingw32/nios2-elf/lib/mno-hw-mul\libc.a(lib_a-memmove.o)
 .bss           0x00000000000023b4        0x0 c:/intelfpga_lite/20.1/nios2eds/bin/gnu/h-x86_64-mingw32/bin/../lib/gcc/nios2-elf/10.1.1/../../../../../H-x86_64-mingw32/nios2-elf/lib/mno-hw-mul\libc.a(lib_a-memset.o)
 .bss           0x00000000000023b4        0x0 c:/intelfpga_lite/20.1/nios2eds/bin/gnu/h-x86_64-mingw32/bin/../lib/gcc/nios2-elf/10.1.1/../../../../../H-x86_64-mingw32/nios2-elf/lib/mno-hw-mul\libc.a(lib_a-mprec.o)
 .bss           0x00000000000023b4        0x0 c:/intelfpga_lite/20.1/nios2eds/bin/gnu/h-x86_64-mingw32/bin/../lib/gcc/nios2-elf/10.1.1/../../../../../H-x86_64-mingw32/nios2-elf/lib/mno-hw-mul\libc.a(lib_a-putc.o)
 .bss           0x00000000000023b4        0x0 c:/intelfpga_lite/20.1/nios2eds/bin/gnu/h-x86_64-mingw32/bin/../lib/gcc/nios2-elf/10.1.1/../../../../../H-x86_64-mingw32/nios2-elf/lib/mno-hw-mul\libc.a(lib_a-reallocr.o)
 .bss           0x00000000000023b4        0x0 c:/intelfpga_lite/20.1/nios2eds/bin/gnu/h-x86_64-mingw32/bin/../lib/gcc/nios2-elf/10.1.1/../../../../../H-x86_64-mingw32/nios2-elf/lib/mno-hw-mul\libc.a(lib_a-sbrkr.o)
 .bss           0x00000000000023b4        0x0 c:/intelfpga_lite/20.1/nios2eds/bin/gnu/h-x86_64-mingw32/bin/../lib/gcc/nios2-elf/10.1.1/../../../../../H-x86_64-mingw32/nios2-elf/lib/mno-hw-mul\libc.a(lib_a-stdio.o)
 .bss           0x00000000000023b4        0x0 c:/intelfpga_lite/20.1/nios2eds/bin/gnu/h-x86_64-mingw32/bin/../lib/gcc/nios2-elf/10.1.1/../../../../../H-x86_64-mingw32/nios2-elf/lib/mno-hw-mul\libc.a(lib_a-vfiprintf.o)
 .bss           0x00000000000023b4        0x0 c:/intelfpga_lite/20.1/nios2eds/bin/gnu/h-x86_64-mingw32/bin/../lib/gcc/nios2-elf/10.1.1/../../../../../H-x86_64-mingw32/nios2-elf/lib/mno-hw-mul\libc.a(lib_a-wbuf.o)
 .bss           0x00000000000023b4        0x0 c:/intelfpga_lite/20.1/nios2eds/bin/gnu/h-x86_64-mingw32/bin/../lib/gcc/nios2-elf/10.1.1/../../../../../H-x86_64-mingw32/nios2-elf/lib/mno-hw-mul\libc.a(lib_a-writer.o)
 .bss           0x00000000000023b4        0x0 c:/intelfpga_lite/20.1/nios2eds/bin/gnu/h-x86_64-mingw32/bin/../lib/gcc/nios2-elf/10.1.1/../../../../../H-x86_64-mingw32/nios2-elf/lib/mno-hw-mul\libc.a(closer.o)
 .bss           0x00000000000023b4        0x0 c:/intelfpga_lite/20.1/nios2eds/bin/gnu/h-x86_64-mingw32/bin/../lib/gcc/nios2-elf/10.1.1/../../../../../H-x86_64-mingw32/nios2-elf/lib/mno-hw-mul\libc.a(lib_a-assert.o)
 .bss           0x00000000000023b4        0x0 c:/intelfpga_lite/20.1/nios2eds/bin/gnu/h-x86_64-mingw32/bin/../lib/gcc/nios2-elf/10.1.1/../../../../../H-x86_64-mingw32/nios2-elf/lib/mno-hw-mul\libc.a(lib_a-callocr.o)
 .bss           0x00000000000023b4        0x0 c:/intelfpga_lite/20.1/nios2eds/bin/gnu/h-x86_64-mingw32/bin/../lib/gcc/nios2-elf/10.1.1/../../../../../H-x86_64-mingw32/nios2-elf/lib/mno-hw-mul\libc.a(lib_a-fclose.o)
 .bss           0x00000000000023b4        0x0 c:/intelfpga_lite/20.1/nios2eds/bin/gnu/h-x86_64-mingw32/bin/../lib/gcc/nios2-elf/10.1.1/../../../../../H-x86_64-mingw32/nios2-elf/lib/mno-hw-mul\libc.a(lib_a-fiprintf.o)
 .bss           0x00000000000023b4        0x0 c:/intelfpga_lite/20.1/nios2eds/bin/gnu/h-x86_64-mingw32/bin/../lib/gcc/nios2-elf/10.1.1/../../../../../H-x86_64-mingw32/nios2-elf/lib/mno-hw-mul\libc.a(lib_a-fputwc.o)
 .bss           0x00000000000023b4        0x0 c:/intelfpga_lite/20.1/nios2eds/bin/gnu/h-x86_64-mingw32/bin/../lib/gcc/nios2-elf/10.1.1/../../../../../H-x86_64-mingw32/nios2-elf/lib/mno-hw-mul\libc.a(lib_a-fstatr.o)
 .bss           0x00000000000023b4        0x0 c:/intelfpga_lite/20.1/nios2eds/bin/gnu/h-x86_64-mingw32/bin/../lib/gcc/nios2-elf/10.1.1/../../../../../H-x86_64-mingw32/nios2-elf/lib/mno-hw-mul\libc.a(lib_a-int_errno.o)
 .bss           0x00000000000023b4        0x0 c:/intelfpga_lite/20.1/nios2eds/bin/gnu/h-x86_64-mingw32/bin/../lib/gcc/nios2-elf/10.1.1/../../../../../H-x86_64-mingw32/nios2-elf/lib/mno-hw-mul\libc.a(lib_a-isattyr.o)
 .bss           0x00000000000023b4        0x0 c:/intelfpga_lite/20.1/nios2eds/bin/gnu/h-x86_64-mingw32/bin/../lib/gcc/nios2-elf/10.1.1/../../../../../H-x86_64-mingw32/nios2-elf/lib/mno-hw-mul\libc.a(lib_a-locale.o)
 .bss           0x00000000000023b4        0x0 c:/intelfpga_lite/20.1/nios2eds/bin/gnu/h-x86_64-mingw32/bin/../lib/gcc/nios2-elf/10.1.1/../../../../../H-x86_64-mingw32/nios2-elf/lib/mno-hw-mul\libc.a(lib_a-lseekr.o)
 .bss           0x00000000000023b4        0x0 c:/intelfpga_lite/20.1/nios2eds/bin/gnu/h-x86_64-mingw32/bin/../lib/gcc/nios2-elf/10.1.1/../../../../../H-x86_64-mingw32/nios2-elf/lib/mno-hw-mul\libc.a(lib_a-mbtowc_r.o)
 .bss           0x00000000000023b4        0x0 c:/intelfpga_lite/20.1/nios2eds/bin/gnu/h-x86_64-mingw32/bin/../lib/gcc/nios2-elf/10.1.1/../../../../../H-x86_64-mingw32/nios2-elf/lib/mno-hw-mul\libc.a(lib_a-readr.o)
 .bss           0x00000000000023b4        0x0 c:/intelfpga_lite/20.1/nios2eds/bin/gnu/h-x86_64-mingw32/bin/../lib/gcc/nios2-elf/10.1.1/../../../../../H-x86_64-mingw32/nios2-elf/lib/mno-hw-mul\libc.a(lib_a-strcmp.o)
 .bss           0x00000000000023b4        0x0 c:/intelfpga_lite/20.1/nios2eds/bin/gnu/h-x86_64-mingw32/bin/../lib/gcc/nios2-elf/10.1.1/../../../../../H-x86_64-mingw32/nios2-elf/lib/mno-hw-mul\libc.a(lib_a-vfiprintfr_1.o)
 .bss           0x00000000000023b4        0x0 c:/intelfpga_lite/20.1/nios2eds/bin/gnu/h-x86_64-mingw32/bin/../lib/gcc/nios2-elf/10.1.1/../../../../../H-x86_64-mingw32/nios2-elf/lib/mno-hw-mul\libc.a(lib_a-wcrtomb.o)
 .bss           0x00000000000023b4        0x0 c:/intelfpga_lite/20.1/nios2eds/bin/gnu/h-x86_64-mingw32/bin/../lib/gcc/nios2-elf/10.1.1/../../../../../H-x86_64-mingw32/nios2-elf/lib/mno-hw-mul\libc.a(lib_a-wctomb_r.o)
 .bss           0x00000000000023b4        0x0 c:/intelfpga_lite/20.1/nios2eds/bin/gnu/h-x86_64-mingw32/bin/../lib/gcc/nios2-elf/10.1.1/../../../../../H-x86_64-mingw32/nios2-elf/lib/mno-hw-mul\libc.a(lib_a-abort.o)
 .bss           0x00000000000023b4        0x0 c:/intelfpga_lite/20.1/nios2eds/bin/gnu/h-x86_64-mingw32/bin/../lib/gcc/nios2-elf/10.1.1/../../../../../H-x86_64-mingw32/nios2-elf/lib/mno-hw-mul\libc.a(lib_a-ctype_.o)
 .bss           0x00000000000023b4        0x0 c:/intelfpga_lite/20.1/nios2eds/bin/gnu/h-x86_64-mingw32/bin/../lib/gcc/nios2-elf/10.1.1/../../../../../H-x86_64-mingw32/nios2-elf/lib/mno-hw-mul\libc.a(lib_a-signal.o)
 .bss           0x00000000000023b4        0x0 c:/intelfpga_lite/20.1/nios2eds/bin/gnu/h-x86_64-mingw32/bin/../lib/gcc/nios2-elf/10.1.1/../../../../../H-x86_64-mingw32/nios2-elf/lib/mno-hw-mul\libc.a(lib_a-signalr.o)
 .bss           0x00000000000023b4        0x0 c:/intelfpga_lite/20.1/nios2eds/bin/gnu/h-x86_64-mingw32/bin/../lib/gcc/nios2-elf/10.1.1/mno-hw-mul\libgcc.a(_muldi3.o)
 .bss           0x00000000000023b4        0x0 c:/intelfpga_lite/20.1/nios2eds/bin/gnu/h-x86_64-mingw32/bin/../lib/gcc/nios2-elf/10.1.1/mno-hw-mul\libgcc.a(_udivdi3.o)
 .bss           0x00000000000023b4        0x0 c:/intelfpga_lite/20.1/nios2eds/bin/gnu/h-x86_64-mingw32/bin/../lib/gcc/nios2-elf/10.1.1/mno-hw-mul\libgcc.a(_umoddi3.o)
 .bss           0x00000000000023b4        0x0 c:/intelfpga_lite/20.1/nios2eds/bin/gnu/h-x86_64-mingw32/bin/../lib/gcc/nios2-elf/10.1.1/mno-hw-mul\libgcc.a(adddf3.o)
 .bss           0x00000000000023b4        0x0 c:/intelfpga_lite/20.1/nios2eds/bin/gnu/h-x86_64-mingw32/bin/../lib/gcc/nios2-elf/10.1.1/mno-hw-mul\libgcc.a(divdf3.o)
 .bss           0x00000000000023b4        0x0 c:/intelfpga_lite/20.1/nios2eds/bin/gnu/h-x86_64-mingw32/bin/../lib/gcc/nios2-elf/10.1.1/mno-hw-mul\libgcc.a(eqdf2.o)
 .bss           0x00000000000023b4        0x0 c:/intelfpga_lite/20.1/nios2eds/bin/gnu/h-x86_64-mingw32/bin/../lib/gcc/nios2-elf/10.1.1/mno-hw-mul\libgcc.a(gedf2.o)
 .bss           0x00000000000023b4        0x0 c:/intelfpga_lite/20.1/nios2eds/bin/gnu/h-x86_64-mingw32/bin/../lib/gcc/nios2-elf/10.1.1/mno-hw-mul\libgcc.a(ledf2.o)
 .bss           0x00000000000023b4        0x0 c:/intelfpga_lite/20.1/nios2eds/bin/gnu/h-x86_64-mingw32/bin/../lib/gcc/nios2-elf/10.1.1/mno-hw-mul\libgcc.a(muldf3.o)
 .bss           0x00000000000023b4        0x0 c:/intelfpga_lite/20.1/nios2eds/bin/gnu/h-x86_64-mingw32/bin/../lib/gcc/nios2-elf/10.1.1/mno-hw-mul\libgcc.a(subdf3.o)
 .bss           0x00000000000023b4        0x0 c:/intelfpga_lite/20.1/nios2eds/bin/gnu/h-x86_64-mingw32/bin/../lib/gcc/nios2-elf/10.1.1/mno-hw-mul\libgcc.a(unorddf2.o)
 .bss           0x00000000000023b4        0x0 c:/intelfpga_lite/20.1/nios2eds/bin/gnu/h-x86_64-mingw32/bin/../lib/gcc/nios2-elf/10.1.1/mno-hw-mul\libgcc.a(fixdfsi.o)
 .bss           0x00000000000023b4        0x0 c:/intelfpga_lite/20.1/nios2eds/bin/gnu/h-x86_64-mingw32/bin/../lib/gcc/nios2-elf/10.1.1/mno-hw-mul\libgcc.a(floatsidf.o)
 .bss           0x00000000000023b4        0x0 c:/intelfpga_lite/20.1/nios2eds/bin/gnu/h-x86_64-mingw32/bin/../lib/gcc/nios2-elf/10.1.1/mno-hw-mul\libgcc.a(floatunsidf.o)
 .bss           0x00000000000023b4        0x0 c:/intelfpga_lite/20.1/nios2eds/bin/gnu/h-x86_64-mingw32/bin/../lib/gcc/nios2-elf/10.1.1/mno-hw-mul\libgcc.a(_clz.o)
 .bss           0x00000000000023b4        0x0 c:/intelfpga_lite/20.1/nios2eds/bin/gnu/h-x86_64-mingw32/bin/../lib/gcc/nios2-elf/10.1.1/mno-hw-mul\libgcc.a(_clzsi2.o)
 .bss           0x00000000000023b4        0x0 c:/fpga/DE1-SoC_v.5.1.3_HWrevF.revG_SystemCD/Demonstrations/FPGA/DE1_SoC_SDRAM_Nios_Test/software/sdram_nios_test_v2_bsp/\libhal_bsp.a(alt_close.o)
 .bss           0x00000000000023b4        0x0 c:/fpga/DE1-SoC_v.5.1.3_HWrevF.revG_SystemCD/Demonstrations/FPGA/DE1_SoC_SDRAM_Nios_Test/software/sdram_nios_test_v2_bsp/\libhal_bsp.a(alt_dcache_flush_all.o)
 .bss           0x00000000000023b4        0x0 c:/fpga/DE1-SoC_v.5.1.3_HWrevF.revG_SystemCD/Demonstrations/FPGA/DE1_SoC_SDRAM_Nios_Test/software/sdram_nios_test_v2_bsp/\libhal_bsp.a(alt_dev.o)
 .bss           0x00000000000023b4        0x0 c:/fpga/DE1-SoC_v.5.1.3_HWrevF.revG_SystemCD/Demonstrations/FPGA/DE1_SoC_SDRAM_Nios_Test/software/sdram_nios_test_v2_bsp/\libhal_bsp.a(alt_errno.o)
 .bss           0x00000000000023b4        0x0 c:/fpga/DE1-SoC_v.5.1.3_HWrevF.revG_SystemCD/Demonstrations/FPGA/DE1_SoC_SDRAM_Nios_Test/software/sdram_nios_test_v2_bsp/\libhal_bsp.a(alt_exit.o)
 .bss           0x00000000000023b4        0x0 c:/fpga/DE1-SoC_v.5.1.3_HWrevF.revG_SystemCD/Demonstrations/FPGA/DE1_SoC_SDRAM_Nios_Test/software/sdram_nios_test_v2_bsp/\libhal_bsp.a(alt_fstat.o)
 .bss           0x00000000000023b4        0x0 c:/fpga/DE1-SoC_v.5.1.3_HWrevF.revG_SystemCD/Demonstrations/FPGA/DE1_SoC_SDRAM_Nios_Test/software/sdram_nios_test_v2_bsp/\libhal_bsp.a(alt_getpid.o)
 .bss           0x00000000000023b4        0x0 c:/fpga/DE1-SoC_v.5.1.3_HWrevF.revG_SystemCD/Demonstrations/FPGA/DE1_SoC_SDRAM_Nios_Test/software/sdram_nios_test_v2_bsp/\libhal_bsp.a(alt_isatty.o)
 .bss           0x00000000000023b4        0x0 c:/fpga/DE1-SoC_v.5.1.3_HWrevF.revG_SystemCD/Demonstrations/FPGA/DE1_SoC_SDRAM_Nios_Test/software/sdram_nios_test_v2_bsp/\libhal_bsp.a(alt_kill.o)
 .bss           0x00000000000023b4        0x0 c:/fpga/DE1-SoC_v.5.1.3_HWrevF.revG_SystemCD/Demonstrations/FPGA/DE1_SoC_SDRAM_Nios_Test/software/sdram_nios_test_v2_bsp/\libhal_bsp.a(alt_load.o)
 .bss           0x00000000000023b4        0x0 c:/fpga/DE1-SoC_v.5.1.3_HWrevF.revG_SystemCD/Demonstrations/FPGA/DE1_SoC_SDRAM_Nios_Test/software/sdram_nios_test_v2_bsp/\libhal_bsp.a(alt_lseek.o)
 .bss           0x00000000000023b4        0x0 c:/fpga/DE1-SoC_v.5.1.3_HWrevF.revG_SystemCD/Demonstrations/FPGA/DE1_SoC_SDRAM_Nios_Test/software/sdram_nios_test_v2_bsp/\libhal_bsp.a(alt_main.o)
 .bss           0x00000000000023b4        0x0 c:/fpga/DE1-SoC_v.5.1.3_HWrevF.revG_SystemCD/Demonstrations/FPGA/DE1_SoC_SDRAM_Nios_Test/software/sdram_nios_test_v2_bsp/\libhal_bsp.a(alt_malloc_lock.o)
 .bss           0x00000000000023b4        0x0 c:/fpga/DE1-SoC_v.5.1.3_HWrevF.revG_SystemCD/Demonstrations/FPGA/DE1_SoC_SDRAM_Nios_Test/software/sdram_nios_test_v2_bsp/\libhal_bsp.a(alt_read.o)
 .bss           0x00000000000023b4        0x0 c:/fpga/DE1-SoC_v.5.1.3_HWrevF.revG_SystemCD/Demonstrations/FPGA/DE1_SoC_SDRAM_Nios_Test/software/sdram_nios_test_v2_bsp/\libhal_bsp.a(alt_release_fd.o)
 .bss           0x00000000000023b4        0x0 c:/fpga/DE1-SoC_v.5.1.3_HWrevF.revG_SystemCD/Demonstrations/FPGA/DE1_SoC_SDRAM_Nios_Test/software/sdram_nios_test_v2_bsp/\libhal_bsp.a(alt_sbrk.o)
 .bss           0x00000000000023b4        0x0 c:/fpga/DE1-SoC_v.5.1.3_HWrevF.revG_SystemCD/Demonstrations/FPGA/DE1_SoC_SDRAM_Nios_Test/software/sdram_nios_test_v2_bsp/\libhal_bsp.a(alt_tick.o)
 .bss           0x00000000000023b4        0x0 c:/fpga/DE1-SoC_v.5.1.3_HWrevF.revG_SystemCD/Demonstrations/FPGA/DE1_SoC_SDRAM_Nios_Test/software/sdram_nios_test_v2_bsp/\libhal_bsp.a(alt_usleep.o)
 .bss           0x00000000000023b4        0x0 c:/fpga/DE1-SoC_v.5.1.3_HWrevF.revG_SystemCD/Demonstrations/FPGA/DE1_SoC_SDRAM_Nios_Test/software/sdram_nios_test_v2_bsp/\libhal_bsp.a(alt_write.o)
 .bss           0x00000000000023b4        0x0 c:/fpga/DE1-SoC_v.5.1.3_HWrevF.revG_SystemCD/Demonstrations/FPGA/DE1_SoC_SDRAM_Nios_Test/software/sdram_nios_test_v2_bsp/\libhal_bsp.a(alt_sys_init.o)
 .bss           0x00000000000023b4        0x0 c:/fpga/DE1-SoC_v.5.1.3_HWrevF.revG_SystemCD/Demonstrations/FPGA/DE1_SoC_SDRAM_Nios_Test/software/sdram_nios_test_v2_bsp/\libhal_bsp.a(altera_avalon_jtag_uart_fd.o)
 .bss           0x00000000000023b4        0x0 c:/fpga/DE1-SoC_v.5.1.3_HWrevF.revG_SystemCD/Demonstrations/FPGA/DE1_SoC_SDRAM_Nios_Test/software/sdram_nios_test_v2_bsp/\libhal_bsp.a(altera_avalon_jtag_uart_init.o)
 .bss           0x00000000000023b4        0x0 c:/fpga/DE1-SoC_v.5.1.3_HWrevF.revG_SystemCD/Demonstrations/FPGA/DE1_SoC_SDRAM_Nios_Test/software/sdram_nios_test_v2_bsp/\libhal_bsp.a(altera_avalon_jtag_uart_ioctl.o)
 .bss           0x00000000000023b4        0x0 c:/fpga/DE1-SoC_v.5.1.3_HWrevF.revG_SystemCD/Demonstrations/FPGA/DE1_SoC_SDRAM_Nios_Test/software/sdram_nios_test_v2_bsp/\libhal_bsp.a(altera_avalon_jtag_uart_read.o)
 .bss           0x00000000000023b4        0x0 c:/fpga/DE1-SoC_v.5.1.3_HWrevF.revG_SystemCD/Demonstrations/FPGA/DE1_SoC_SDRAM_Nios_Test/software/sdram_nios_test_v2_bsp/\libhal_bsp.a(altera_avalon_jtag_uart_write.o)
 .bss           0x00000000000023b4        0x0 c:/fpga/DE1-SoC_v.5.1.3_HWrevF.revG_SystemCD/Demonstrations/FPGA/DE1_SoC_SDRAM_Nios_Test/software/sdram_nios_test_v2_bsp/\libhal_bsp.a(altera_avalon_timer_sc.o)
 .bss           0x00000000000023b4        0x0 c:/fpga/DE1-SoC_v.5.1.3_HWrevF.revG_SystemCD/Demonstrations/FPGA/DE1_SoC_SDRAM_Nios_Test/software/sdram_nios_test_v2_bsp/\libhal_bsp.a(alt_alarm_start.o)
 .bss           0x00000000000023b4        0x0 c:/fpga/DE1-SoC_v.5.1.3_HWrevF.revG_SystemCD/Demonstrations/FPGA/DE1_SoC_SDRAM_Nios_Test/software/sdram_nios_test_v2_bsp/\libhal_bsp.a(alt_busy_sleep.o)
 .bss           0x00000000000023b4        0x0 c:/fpga/DE1-SoC_v.5.1.3_HWrevF.revG_SystemCD/Demonstrations/FPGA/DE1_SoC_SDRAM_Nios_Test/software/sdram_nios_test_v2_bsp/\libhal_bsp.a(alt_dev_llist_insert.o)
 .bss           0x00000000000023b4        0x0 c:/fpga/DE1-SoC_v.5.1.3_HWrevF.revG_SystemCD/Demonstrations/FPGA/DE1_SoC_SDRAM_Nios_Test/software/sdram_nios_test_v2_bsp/\libhal_bsp.a(alt_do_ctors.o)
 .bss           0x00000000000023b4        0x0 c:/fpga/DE1-SoC_v.5.1.3_HWrevF.revG_SystemCD/Demonstrations/FPGA/DE1_SoC_SDRAM_Nios_Test/software/sdram_nios_test_v2_bsp/\libhal_bsp.a(alt_do_dtors.o)
 .bss           0x00000000000023b4        0x0 c:/fpga/DE1-SoC_v.5.1.3_HWrevF.revG_SystemCD/Demonstrations/FPGA/DE1_SoC_SDRAM_Nios_Test/software/sdram_nios_test_v2_bsp/\libhal_bsp.a(alt_icache_flush_all.o)
 .bss           0x00000000000023b4        0x0 c:/fpga/DE1-SoC_v.5.1.3_HWrevF.revG_SystemCD/Demonstrations/FPGA/DE1_SoC_SDRAM_Nios_Test/software/sdram_nios_test_v2_bsp/\libhal_bsp.a(alt_iic.o)
 .bss           0x00000000000023b4        0x0 c:/fpga/DE1-SoC_v.5.1.3_HWrevF.revG_SystemCD/Demonstrations/FPGA/DE1_SoC_SDRAM_Nios_Test/software/sdram_nios_test_v2_bsp/\libhal_bsp.a(alt_iic_isr_register.o)
 .bss           0x00000000000023b4        0x0 c:/fpga/DE1-SoC_v.5.1.3_HWrevF.revG_SystemCD/Demonstrations/FPGA/DE1_SoC_SDRAM_Nios_Test/software/sdram_nios_test_v2_bsp/\libhal_bsp.a(alt_io_redirect.o)
 .bss           0x00000000000023b4        0x0 c:/fpga/DE1-SoC_v.5.1.3_HWrevF.revG_SystemCD/Demonstrations/FPGA/DE1_SoC_SDRAM_Nios_Test/software/sdram_nios_test_v2_bsp/\libhal_bsp.a(alt_irq_entry.o)
 .bss           0x00000000000023b4      0x100 c:/fpga/DE1-SoC_v.5.1.3_HWrevF.revG_SystemCD/Demonstrations/FPGA/DE1_SoC_SDRAM_Nios_Test/software/sdram_nios_test_v2_bsp/\libhal_bsp.a(alt_irq_handler.o)
                0x00000000000023b4                alt_irq
 .bss           0x00000000000024b4        0x0 c:/fpga/DE1-SoC_v.5.1.3_HWrevF.revG_SystemCD/Demonstrations/FPGA/DE1_SoC_SDRAM_Nios_Test/software/sdram_nios_test_v2_bsp/\libhal_bsp.a(alt_irq_vars.o)
 .bss           0x00000000000024b4        0x0 c:/fpga/DE1-SoC_v.5.1.3_HWrevF.revG_SystemCD/Demonstrations/FPGA/DE1_SoC_SDRAM_Nios_Test/software/sdram_nios_test_v2_bsp/\libhal_bsp.a(alt_open.o)
 .bss           0x00000000000024b4        0x0 c:/fpga/DE1-SoC_v.5.1.3_HWrevF.revG_SystemCD/Demonstrations/FPGA/DE1_SoC_SDRAM_Nios_Test/software/sdram_nios_test_v2_bsp/\libhal_bsp.a(altera_nios2_gen2_irq.o)
 .bss           0x00000000000024b4        0x0 c:/fpga/DE1-SoC_v.5.1.3_HWrevF.revG_SystemCD/Demonstrations/FPGA/DE1_SoC_SDRAM_Nios_Test/software/sdram_nios_test_v2_bsp/\libhal_bsp.a(alt_exception_entry.o)
 .bss           0x00000000000024b4        0x0 c:/fpga/DE1-SoC_v.5.1.3_HWrevF.revG_SystemCD/Demonstrations/FPGA/DE1_SoC_SDRAM_Nios_Test/software/sdram_nios_test_v2_bsp/\libhal_bsp.a(alt_find_dev.o)
 .bss           0x00000000000024b4        0x0 c:/fpga/DE1-SoC_v.5.1.3_HWrevF.revG_SystemCD/Demonstrations/FPGA/DE1_SoC_SDRAM_Nios_Test/software/sdram_nios_test_v2_bsp/\libhal_bsp.a(alt_find_file.o)
 .bss           0x00000000000024b4        0x0 c:/fpga/DE1-SoC_v.5.1.3_HWrevF.revG_SystemCD/Demonstrations/FPGA/DE1_SoC_SDRAM_Nios_Test/software/sdram_nios_test_v2_bsp/\libhal_bsp.a(alt_get_fd.o)
 .bss           0x00000000000024b4        0x0 c:/fpga/DE1-SoC_v.5.1.3_HWrevF.revG_SystemCD/Demonstrations/FPGA/DE1_SoC_SDRAM_Nios_Test/software/sdram_nios_test_v2_bsp/\libhal_bsp.a(alt_instruction_exception_entry.o)
 .bss           0x00000000000024b4        0x0 c:/intelfpga_lite/20.1/nios2eds/bin/gnu/h-x86_64-mingw32/bin/../lib/gcc/nios2-elf/10.1.1/../../../../../H-x86_64-mingw32/nios2-elf/lib/mno-hw-mul\libc.a(lib_a-atexit.o)
 .bss           0x00000000000024b4        0x0 c:/intelfpga_lite/20.1/nios2eds/bin/gnu/h-x86_64-mingw32/bin/../lib/gcc/nios2-elf/10.1.1/../../../../../H-x86_64-mingw32/nios2-elf/lib/mno-hw-mul\libc.a(lib_a-exit.o)
 .bss           0x00000000000024b4        0x0 c:/intelfpga_lite/20.1/nios2eds/bin/gnu/h-x86_64-mingw32/bin/../lib/gcc/nios2-elf/10.1.1/../../../../../H-x86_64-mingw32/nios2-elf/lib/mno-hw-mul\libc.a(lib_a-memcmp.o)
 .bss           0x00000000000024b4        0x0 c:/intelfpga_lite/20.1/nios2eds/bin/gnu/h-x86_64-mingw32/bin/../lib/gcc/nios2-elf/10.1.1/../../../../../H-x86_64-mingw32/nios2-elf/lib/mno-hw-mul\libc.a(lib_a-__atexit.o)
 .bss           0x00000000000024b4        0x0 c:/intelfpga_lite/20.1/nios2eds/bin/gnu/h-x86_64-mingw32/bin/../lib/gcc/nios2-elf/10.1.1/../../../../../H-x86_64-mingw32/nios2-elf/lib/mno-hw-mul\libc.a(lib_a-__call_atexit.o)
 *(COMMON)
                0x00000000000024b4                . = ALIGN (0x4)
                0x00000000000024b4                __bss_end = ABSOLUTE (.)

.sdram          0x00000000000024b4        0x0 load address 0x0000000004032cf8
                [!provide]                        PROVIDE (_alt_partition_sdram_start = ABSOLUTE (.))
 *(.sdram .sdram. sdram.*)
                0x00000000000024b4                . = ALIGN (0x4)
                [!provide]                        PROVIDE (_alt_partition_sdram_end = ABSOLUTE (.))
                0x00000000000024b4                _end = ABSOLUTE (.)
                0x00000000000024b4                end = ABSOLUTE (.)
                0x00000000000024b4                __alt_stack_base = ABSOLUTE (.)
                [!provide]                        PROVIDE (_alt_partition_sdram_load_addr = LOADADDR (.sdram))

.onchip_memory2
                0x0000000004032cf8        0x0
                [!provide]                        PROVIDE (_alt_partition_onchip_memory2_start = ABSOLUTE (.))
 *(.onchip_memory2 .onchip_memory2. onchip_memory2.*)
                0x0000000004032cf8                . = ALIGN (0x4)
                [!provide]                        PROVIDE (_alt_partition_onchip_memory2_end = ABSOLUTE (.))
                [!provide]                        PROVIDE (_alt_partition_onchip_memory2_load_addr = LOADADDR (.onchip_memory2))

.stab
 *(.stab)

.stabstr
 *(.stabstr)

.stab.excl
 *(.stab.excl)

.stab.exclstr
 *(.stab.exclstr)

.stab.index
 *(.stab.index)

.stab.indexstr
 *(.stab.indexstr)

.comment        0x0000000000000000       0x2d
 *(.comment)
 .comment       0x0000000000000000       0x2d obj/default/main.o
                                         0x2e (size before relaxing)
 .comment       0x000000000000002d       0x2e obj/default/mem_verify.o
 .comment       0x000000000000002d       0x2e c:/intelfpga_lite/20.1/nios2eds/bin/gnu/h-x86_64-mingw32/bin/../lib/gcc/nios2-elf/10.1.1/mno-hw-mul\libgcc.a(lib2-divmod.o)
 .comment       0x000000000000002d       0x2e c:/intelfpga_lite/20.1/nios2eds/bin/gnu/h-x86_64-mingw32/bin/../lib/gcc/nios2-elf/10.1.1/mno-hw-mul\libgcc.a(lib2-mul.o)
 .comment       0x000000000000002d       0x2e c:/intelfpga_lite/20.1/nios2eds/bin/gnu/h-x86_64-mingw32/bin/../lib/gcc/nios2-elf/10.1.1/../../../../../H-x86_64-mingw32/nios2-elf/lib/mno-hw-mul\libc.a(lib_a-memcpy.o)
 .comment       0x000000000000002d       0x2e c:/intelfpga_lite/20.1/nios2eds/bin/gnu/h-x86_64-mingw32/bin/../lib/gcc/nios2-elf/10.1.1/../../../../../H-x86_64-mingw32/nios2-elf/lib/mno-hw-mul\libc.a(lib_a-printf.o)
 .comment       0x000000000000002d       0x2e c:/intelfpga_lite/20.1/nios2eds/bin/gnu/h-x86_64-mingw32/bin/../lib/gcc/nios2-elf/10.1.1/../../../../../H-x86_64-mingw32/nios2-elf/lib/mno-hw-mul\libc.a(lib_a-putchar.o)
 .comment       0x000000000000002d       0x2e c:/intelfpga_lite/20.1/nios2eds/bin/gnu/h-x86_64-mingw32/bin/../lib/gcc/nios2-elf/10.1.1/../../../../../H-x86_64-mingw32/nios2-elf/lib/mno-hw-mul\libc.a(lib_a-puts.o)
 .comment       0x000000000000002d       0x2e c:/intelfpga_lite/20.1/nios2eds/bin/gnu/h-x86_64-mingw32/bin/../lib/gcc/nios2-elf/10.1.1/../../../../../H-x86_64-mingw32/nios2-elf/lib/mno-hw-mul\libc.a(lib_a-rand.o)
 .comment       0x000000000000002d       0x2e c:/intelfpga_lite/20.1/nios2eds/bin/gnu/h-x86_64-mingw32/bin/../lib/gcc/nios2-elf/10.1.1/../../../../../H-x86_64-mingw32/nios2-elf/lib/mno-hw-mul\libc.a(lib_a-strlen.o)
 .comment       0x000000000000002d       0x2e c:/intelfpga_lite/20.1/nios2eds/bin/gnu/h-x86_64-mingw32/bin/../lib/gcc/nios2-elf/10.1.1/../../../../../H-x86_64-mingw32/nios2-elf/lib/mno-hw-mul\libc.a(lib_a-vfprintf.o)
 .comment       0x000000000000002d       0x2e c:/intelfpga_lite/20.1/nios2eds/bin/gnu/h-x86_64-mingw32/bin/../lib/gcc/nios2-elf/10.1.1/../../../../../H-x86_64-mingw32/nios2-elf/lib/mno-hw-mul\libc.a(lib_a-wsetup.o)
 .comment       0x000000000000002d       0x2e c:/intelfpga_lite/20.1/nios2eds/bin/gnu/h-x86_64-mingw32/bin/../lib/gcc/nios2-elf/10.1.1/../../../../../H-x86_64-mingw32/nios2-elf/lib/mno-hw-mul\libc.a(lib_a-dtoa.o)
 .comment       0x000000000000002d       0x2e c:/intelfpga_lite/20.1/nios2eds/bin/gnu/h-x86_64-mingw32/bin/../lib/gcc/nios2-elf/10.1.1/../../../../../H-x86_64-mingw32/nios2-elf/lib/mno-hw-mul\libc.a(lib_a-fflush.o)
 .comment       0x000000000000002d       0x2e c:/intelfpga_lite/20.1/nios2eds/bin/gnu/h-x86_64-mingw32/bin/../lib/gcc/nios2-elf/10.1.1/../../../../../H-x86_64-mingw32/nios2-elf/lib/mno-hw-mul\libc.a(lib_a-findfp.o)
 .comment       0x000000000000002d       0x2e c:/intelfpga_lite/20.1/nios2eds/bin/gnu/h-x86_64-mingw32/bin/../lib/gcc/nios2-elf/10.1.1/../../../../../H-x86_64-mingw32/nios2-elf/lib/mno-hw-mul\libc.a(lib_a-freer.o)
 .comment       0x000000000000002d       0x2e c:/intelfpga_lite/20.1/nios2eds/bin/gnu/h-x86_64-mingw32/bin/../lib/gcc/nios2-elf/10.1.1/../../../../../H-x86_64-mingw32/nios2-elf/lib/mno-hw-mul\libc.a(lib_a-fvwrite.o)
 .comment       0x000000000000002d       0x2e c:/intelfpga_lite/20.1/nios2eds/bin/gnu/h-x86_64-mingw32/bin/../lib/gcc/nios2-elf/10.1.1/../../../../../H-x86_64-mingw32/nios2-elf/lib/mno-hw-mul\libc.a(lib_a-fwalk.o)
 .comment       0x000000000000002d       0x2e c:/intelfpga_lite/20.1/nios2eds/bin/gnu/h-x86_64-mingw32/bin/../lib/gcc/nios2-elf/10.1.1/../../../../../H-x86_64-mingw32/nios2-elf/lib/mno-hw-mul\libc.a(lib_a-impure.o)
 .comment       0x000000000000002d       0x2e c:/intelfpga_lite/20.1/nios2eds/bin/gnu/h-x86_64-mingw32/bin/../lib/gcc/nios2-elf/10.1.1/../../../../../H-x86_64-mingw32/nios2-elf/lib/mno-hw-mul\libc.a(lib_a-localeconv.o)
 .comment       0x000000000000002d       0x2e c:/intelfpga_lite/20.1/nios2eds/bin/gnu/h-x86_64-mingw32/bin/../lib/gcc/nios2-elf/10.1.1/../../../../../H-x86_64-mingw32/nios2-elf/lib/mno-hw-mul\libc.a(lib_a-makebuf.o)
 .comment       0x000000000000002d       0x2e c:/intelfpga_lite/20.1/nios2eds/bin/gnu/h-x86_64-mingw32/bin/../lib/gcc/nios2-elf/10.1.1/../../../../../H-x86_64-mingw32/nios2-elf/lib/mno-hw-mul\libc.a(lib_a-mallocr.o)
 .comment       0x000000000000002d       0x2e c:/intelfpga_lite/20.1/nios2eds/bin/gnu/h-x86_64-mingw32/bin/../lib/gcc/nios2-elf/10.1.1/../../../../../H-x86_64-mingw32/nios2-elf/lib/mno-hw-mul\libc.a(lib_a-memchr.o)
 .comment       0x000000000000002d       0x2e c:/intelfpga_lite/20.1/nios2eds/bin/gnu/h-x86_64-mingw32/bin/../lib/gcc/nios2-elf/10.1.1/../../../../../H-x86_64-mingw32/nios2-elf/lib/mno-hw-mul\libc.a(lib_a-memmove.o)
 .comment       0x000000000000002d       0x2e c:/intelfpga_lite/20.1/nios2eds/bin/gnu/h-x86_64-mingw32/bin/../lib/gcc/nios2-elf/10.1.1/../../../../../H-x86_64-mingw32/nios2-elf/lib/mno-hw-mul\libc.a(lib_a-memset.o)
 .comment       0x000000000000002d       0x2e c:/intelfpga_lite/20.1/nios2eds/bin/gnu/h-x86_64-mingw32/bin/../lib/gcc/nios2-elf/10.1.1/../../../../../H-x86_64-mingw32/nios2-elf/lib/mno-hw-mul\libc.a(lib_a-mprec.o)
 .comment       0x000000000000002d       0x2e c:/intelfpga_lite/20.1/nios2eds/bin/gnu/h-x86_64-mingw32/bin/../lib/gcc/nios2-elf/10.1.1/../../../../../H-x86_64-mingw32/nios2-elf/lib/mno-hw-mul\libc.a(lib_a-putc.o)
 .comment       0x000000000000002d       0x2e c:/intelfpga_lite/20.1/nios2eds/bin/gnu/h-x86_64-mingw32/bin/../lib/gcc/nios2-elf/10.1.1/../../../../../H-x86_64-mingw32/nios2-elf/lib/mno-hw-mul\libc.a(lib_a-reallocr.o)
 .comment       0x000000000000002d       0x2e c:/intelfpga_lite/20.1/nios2eds/bin/gnu/h-x86_64-mingw32/bin/../lib/gcc/nios2-elf/10.1.1/../../../../../H-x86_64-mingw32/nios2-elf/lib/mno-hw-mul\libc.a(lib_a-sbrkr.o)
 .comment       0x000000000000002d       0x2e c:/intelfpga_lite/20.1/nios2eds/bin/gnu/h-x86_64-mingw32/bin/../lib/gcc/nios2-elf/10.1.1/../../../../../H-x86_64-mingw32/nios2-elf/lib/mno-hw-mul\libc.a(lib_a-stdio.o)
 .comment       0x000000000000002d       0x2e c:/intelfpga_lite/20.1/nios2eds/bin/gnu/h-x86_64-mingw32/bin/../lib/gcc/nios2-elf/10.1.1/../../../../../H-x86_64-mingw32/nios2-elf/lib/mno-hw-mul\libc.a(lib_a-vfiprintf.o)
 .comment       0x000000000000002d       0x2e c:/intelfpga_lite/20.1/nios2eds/bin/gnu/h-x86_64-mingw32/bin/../lib/gcc/nios2-elf/10.1.1/../../../../../H-x86_64-mingw32/nios2-elf/lib/mno-hw-mul\libc.a(lib_a-wbuf.o)
 .comment       0x000000000000002d       0x2e c:/intelfpga_lite/20.1/nios2eds/bin/gnu/h-x86_64-mingw32/bin/../lib/gcc/nios2-elf/10.1.1/../../../../../H-x86_64-mingw32/nios2-elf/lib/mno-hw-mul\libc.a(lib_a-writer.o)
 .comment       0x000000000000002d       0x2e c:/intelfpga_lite/20.1/nios2eds/bin/gnu/h-x86_64-mingw32/bin/../lib/gcc/nios2-elf/10.1.1/../../../../../H-x86_64-mingw32/nios2-elf/lib/mno-hw-mul\libc.a(closer.o)
 .comment       0x000000000000002d       0x2e c:/intelfpga_lite/20.1/nios2eds/bin/gnu/h-x86_64-mingw32/bin/../lib/gcc/nios2-elf/10.1.1/../../../../../H-x86_64-mingw32/nios2-elf/lib/mno-hw-mul\libc.a(lib_a-assert.o)
 .comment       0x000000000000002d       0x2e c:/intelfpga_lite/20.1/nios2eds/bin/gnu/h-x86_64-mingw32/bin/../lib/gcc/nios2-elf/10.1.1/../../../../../H-x86_64-mingw32/nios2-elf/lib/mno-hw-mul\libc.a(lib_a-callocr.o)
 .comment       0x000000000000002d       0x2e c:/intelfpga_lite/20.1/nios2eds/bin/gnu/h-x86_64-mingw32/bin/../lib/gcc/nios2-elf/10.1.1/../../../../../H-x86_64-mingw32/nios2-elf/lib/mno-hw-mul\libc.a(lib_a-fclose.o)
 .comment       0x000000000000002d       0x2e c:/intelfpga_lite/20.1/nios2eds/bin/gnu/h-x86_64-mingw32/bin/../lib/gcc/nios2-elf/10.1.1/../../../../../H-x86_64-mingw32/nios2-elf/lib/mno-hw-mul\libc.a(lib_a-fiprintf.o)
 .comment       0x000000000000002d       0x2e c:/intelfpga_lite/20.1/nios2eds/bin/gnu/h-x86_64-mingw32/bin/../lib/gcc/nios2-elf/10.1.1/../../../../../H-x86_64-mingw32/nios2-elf/lib/mno-hw-mul\libc.a(lib_a-fputwc.o)
 .comment       0x000000000000002d       0x2e c:/intelfpga_lite/20.1/nios2eds/bin/gnu/h-x86_64-mingw32/bin/../lib/gcc/nios2-elf/10.1.1/../../../../../H-x86_64-mingw32/nios2-elf/lib/mno-hw-mul\libc.a(lib_a-fstatr.o)
 .comment       0x000000000000002d       0x2e c:/intelfpga_lite/20.1/nios2eds/bin/gnu/h-x86_64-mingw32/bin/../lib/gcc/nios2-elf/10.1.1/../../../../../H-x86_64-mingw32/nios2-elf/lib/mno-hw-mul\libc.a(lib_a-int_errno.o)
 .comment       0x000000000000002d       0x2e c:/intelfpga_lite/20.1/nios2eds/bin/gnu/h-x86_64-mingw32/bin/../lib/gcc/nios2-elf/10.1.1/../../../../../H-x86_64-mingw32/nios2-elf/lib/mno-hw-mul\libc.a(lib_a-isattyr.o)
 .comment       0x000000000000002d       0x2e c:/intelfpga_lite/20.1/nios2eds/bin/gnu/h-x86_64-mingw32/bin/../lib/gcc/nios2-elf/10.1.1/../../../../../H-x86_64-mingw32/nios2-elf/lib/mno-hw-mul\libc.a(lib_a-locale.o)
 .comment       0x000000000000002d       0x2e c:/intelfpga_lite/20.1/nios2eds/bin/gnu/h-x86_64-mingw32/bin/../lib/gcc/nios2-elf/10.1.1/../../../../../H-x86_64-mingw32/nios2-elf/lib/mno-hw-mul\libc.a(lib_a-lseekr.o)
 .comment       0x000000000000002d       0x2e c:/intelfpga_lite/20.1/nios2eds/bin/gnu/h-x86_64-mingw32/bin/../lib/gcc/nios2-elf/10.1.1/../../../../../H-x86_64-mingw32/nios2-elf/lib/mno-hw-mul\libc.a(lib_a-mbtowc_r.o)
 .comment       0x000000000000002d       0x2e c:/intelfpga_lite/20.1/nios2eds/bin/gnu/h-x86_64-mingw32/bin/../lib/gcc/nios2-elf/10.1.1/../../../../../H-x86_64-mingw32/nios2-elf/lib/mno-hw-mul\libc.a(lib_a-readr.o)
 .comment       0x000000000000002d       0x2e c:/intelfpga_lite/20.1/nios2eds/bin/gnu/h-x86_64-mingw32/bin/../lib/gcc/nios2-elf/10.1.1/../../../../../H-x86_64-mingw32/nios2-elf/lib/mno-hw-mul\libc.a(lib_a-strcmp.o)
 .comment       0x000000000000002d       0x2e c:/intelfpga_lite/20.1/nios2eds/bin/gnu/h-x86_64-mingw32/bin/../lib/gcc/nios2-elf/10.1.1/../../../../../H-x86_64-mingw32/nios2-elf/lib/mno-hw-mul\libc.a(lib_a-vfiprintfr_1.o)
 .comment       0x000000000000002d       0x2e c:/intelfpga_lite/20.1/nios2eds/bin/gnu/h-x86_64-mingw32/bin/../lib/gcc/nios2-elf/10.1.1/../../../../../H-x86_64-mingw32/nios2-elf/lib/mno-hw-mul\libc.a(lib_a-wcrtomb.o)
 .comment       0x000000000000002d       0x2e c:/intelfpga_lite/20.1/nios2eds/bin/gnu/h-x86_64-mingw32/bin/../lib/gcc/nios2-elf/10.1.1/../../../../../H-x86_64-mingw32/nios2-elf/lib/mno-hw-mul\libc.a(lib_a-wctomb_r.o)
 .comment       0x000000000000002d       0x2e c:/intelfpga_lite/20.1/nios2eds/bin/gnu/h-x86_64-mingw32/bin/../lib/gcc/nios2-elf/10.1.1/../../../../../H-x86_64-mingw32/nios2-elf/lib/mno-hw-mul\libc.a(lib_a-abort.o)
 .comment       0x000000000000002d       0x2e c:/intelfpga_lite/20.1/nios2eds/bin/gnu/h-x86_64-mingw32/bin/../lib/gcc/nios2-elf/10.1.1/../../../../../H-x86_64-mingw32/nios2-elf/lib/mno-hw-mul\libc.a(lib_a-ctype_.o)
 .comment       0x000000000000002d       0x2e c:/intelfpga_lite/20.1/nios2eds/bin/gnu/h-x86_64-mingw32/bin/../lib/gcc/nios2-elf/10.1.1/../../../../../H-x86_64-mingw32/nios2-elf/lib/mno-hw-mul\libc.a(lib_a-signal.o)
 .comment       0x000000000000002d       0x2e c:/intelfpga_lite/20.1/nios2eds/bin/gnu/h-x86_64-mingw32/bin/../lib/gcc/nios2-elf/10.1.1/../../../../../H-x86_64-mingw32/nios2-elf/lib/mno-hw-mul\libc.a(lib_a-signalr.o)
 .comment       0x000000000000002d       0x2e c:/intelfpga_lite/20.1/nios2eds/bin/gnu/h-x86_64-mingw32/bin/../lib/gcc/nios2-elf/10.1.1/mno-hw-mul\libgcc.a(_muldi3.o)
 .comment       0x000000000000002d       0x2e c:/intelfpga_lite/20.1/nios2eds/bin/gnu/h-x86_64-mingw32/bin/../lib/gcc/nios2-elf/10.1.1/mno-hw-mul\libgcc.a(_udivdi3.o)
 .comment       0x000000000000002d       0x2e c:/intelfpga_lite/20.1/nios2eds/bin/gnu/h-x86_64-mingw32/bin/../lib/gcc/nios2-elf/10.1.1/mno-hw-mul\libgcc.a(_umoddi3.o)
 .comment       0x000000000000002d       0x2e c:/intelfpga_lite/20.1/nios2eds/bin/gnu/h-x86_64-mingw32/bin/../lib/gcc/nios2-elf/10.1.1/mno-hw-mul\libgcc.a(adddf3.o)
 .comment       0x000000000000002d       0x2e c:/intelfpga_lite/20.1/nios2eds/bin/gnu/h-x86_64-mingw32/bin/../lib/gcc/nios2-elf/10.1.1/mno-hw-mul\libgcc.a(divdf3.o)
 .comment       0x000000000000002d       0x2e c:/intelfpga_lite/20.1/nios2eds/bin/gnu/h-x86_64-mingw32/bin/../lib/gcc/nios2-elf/10.1.1/mno-hw-mul\libgcc.a(eqdf2.o)
 .comment       0x000000000000002d       0x2e c:/intelfpga_lite/20.1/nios2eds/bin/gnu/h-x86_64-mingw32/bin/../lib/gcc/nios2-elf/10.1.1/mno-hw-mul\libgcc.a(gedf2.o)
 .comment       0x000000000000002d       0x2e c:/intelfpga_lite/20.1/nios2eds/bin/gnu/h-x86_64-mingw32/bin/../lib/gcc/nios2-elf/10.1.1/mno-hw-mul\libgcc.a(ledf2.o)
 .comment       0x000000000000002d       0x2e c:/intelfpga_lite/20.1/nios2eds/bin/gnu/h-x86_64-mingw32/bin/../lib/gcc/nios2-elf/10.1.1/mno-hw-mul\libgcc.a(muldf3.o)
 .comment       0x000000000000002d       0x2e c:/intelfpga_lite/20.1/nios2eds/bin/gnu/h-x86_64-mingw32/bin/../lib/gcc/nios2-elf/10.1.1/mno-hw-mul\libgcc.a(subdf3.o)
 .comment       0x000000000000002d       0x2e c:/intelfpga_lite/20.1/nios2eds/bin/gnu/h-x86_64-mingw32/bin/../lib/gcc/nios2-elf/10.1.1/mno-hw-mul\libgcc.a(unorddf2.o)
 .comment       0x000000000000002d       0x2e c:/intelfpga_lite/20.1/nios2eds/bin/gnu/h-x86_64-mingw32/bin/../lib/gcc/nios2-elf/10.1.1/mno-hw-mul\libgcc.a(fixdfsi.o)
 .comment       0x000000000000002d       0x2e c:/intelfpga_lite/20.1/nios2eds/bin/gnu/h-x86_64-mingw32/bin/../lib/gcc/nios2-elf/10.1.1/mno-hw-mul\libgcc.a(floatsidf.o)
 .comment       0x000000000000002d       0x2e c:/intelfpga_lite/20.1/nios2eds/bin/gnu/h-x86_64-mingw32/bin/../lib/gcc/nios2-elf/10.1.1/mno-hw-mul\libgcc.a(floatunsidf.o)
 .comment       0x000000000000002d       0x2e c:/intelfpga_lite/20.1/nios2eds/bin/gnu/h-x86_64-mingw32/bin/../lib/gcc/nios2-elf/10.1.1/mno-hw-mul\libgcc.a(_clz.o)
 .comment       0x000000000000002d       0x2e c:/intelfpga_lite/20.1/nios2eds/bin/gnu/h-x86_64-mingw32/bin/../lib/gcc/nios2-elf/10.1.1/mno-hw-mul\libgcc.a(_clzsi2.o)
 .comment       0x000000000000002d       0x2e c:/fpga/DE1-SoC_v.5.1.3_HWrevF.revG_SystemCD/Demonstrations/FPGA/DE1_SoC_SDRAM_Nios_Test/software/sdram_nios_test_v2_bsp/\libhal_bsp.a(alt_close.o)
 .comment       0x000000000000002d       0x2e c:/fpga/DE1-SoC_v.5.1.3_HWrevF.revG_SystemCD/Demonstrations/FPGA/DE1_SoC_SDRAM_Nios_Test/software/sdram_nios_test_v2_bsp/\libhal_bsp.a(alt_dcache_flush_all.o)
 .comment       0x000000000000002d       0x2e c:/fpga/DE1-SoC_v.5.1.3_HWrevF.revG_SystemCD/Demonstrations/FPGA/DE1_SoC_SDRAM_Nios_Test/software/sdram_nios_test_v2_bsp/\libhal_bsp.a(alt_dev.o)
 .comment       0x000000000000002d       0x2e c:/fpga/DE1-SoC_v.5.1.3_HWrevF.revG_SystemCD/Demonstrations/FPGA/DE1_SoC_SDRAM_Nios_Test/software/sdram_nios_test_v2_bsp/\libhal_bsp.a(alt_errno.o)
 .comment       0x000000000000002d       0x2e c:/fpga/DE1-SoC_v.5.1.3_HWrevF.revG_SystemCD/Demonstrations/FPGA/DE1_SoC_SDRAM_Nios_Test/software/sdram_nios_test_v2_bsp/\libhal_bsp.a(alt_exit.o)
 .comment       0x000000000000002d       0x2e c:/fpga/DE1-SoC_v.5.1.3_HWrevF.revG_SystemCD/Demonstrations/FPGA/DE1_SoC_SDRAM_Nios_Test/software/sdram_nios_test_v2_bsp/\libhal_bsp.a(alt_fstat.o)
 .comment       0x000000000000002d       0x2e c:/fpga/DE1-SoC_v.5.1.3_HWrevF.revG_SystemCD/Demonstrations/FPGA/DE1_SoC_SDRAM_Nios_Test/software/sdram_nios_test_v2_bsp/\libhal_bsp.a(alt_getpid.o)
 .comment       0x000000000000002d       0x2e c:/fpga/DE1-SoC_v.5.1.3_HWrevF.revG_SystemCD/Demonstrations/FPGA/DE1_SoC_SDRAM_Nios_Test/software/sdram_nios_test_v2_bsp/\libhal_bsp.a(alt_isatty.o)
 .comment       0x000000000000002d       0x2e c:/fpga/DE1-SoC_v.5.1.3_HWrevF.revG_SystemCD/Demonstrations/FPGA/DE1_SoC_SDRAM_Nios_Test/software/sdram_nios_test_v2_bsp/\libhal_bsp.a(alt_kill.o)
 .comment       0x000000000000002d       0x2e c:/fpga/DE1-SoC_v.5.1.3_HWrevF.revG_SystemCD/Demonstrations/FPGA/DE1_SoC_SDRAM_Nios_Test/software/sdram_nios_test_v2_bsp/\libhal_bsp.a(alt_load.o)
 .comment       0x000000000000002d       0x2e c:/fpga/DE1-SoC_v.5.1.3_HWrevF.revG_SystemCD/Demonstrations/FPGA/DE1_SoC_SDRAM_Nios_Test/software/sdram_nios_test_v2_bsp/\libhal_bsp.a(alt_lseek.o)
 .comment       0x000000000000002d       0x2e c:/fpga/DE1-SoC_v.5.1.3_HWrevF.revG_SystemCD/Demonstrations/FPGA/DE1_SoC_SDRAM_Nios_Test/software/sdram_nios_test_v2_bsp/\libhal_bsp.a(alt_main.o)
 .comment       0x000000000000002d       0x2e c:/fpga/DE1-SoC_v.5.1.3_HWrevF.revG_SystemCD/Demonstrations/FPGA/DE1_SoC_SDRAM_Nios_Test/software/sdram_nios_test_v2_bsp/\libhal_bsp.a(alt_malloc_lock.o)
 .comment       0x000000000000002d       0x2e c:/fpga/DE1-SoC_v.5.1.3_HWrevF.revG_SystemCD/Demonstrations/FPGA/DE1_SoC_SDRAM_Nios_Test/software/sdram_nios_test_v2_bsp/\libhal_bsp.a(alt_read.o)
 .comment       0x000000000000002d       0x2e c:/fpga/DE1-SoC_v.5.1.3_HWrevF.revG_SystemCD/Demonstrations/FPGA/DE1_SoC_SDRAM_Nios_Test/software/sdram_nios_test_v2_bsp/\libhal_bsp.a(alt_release_fd.o)
 .comment       0x000000000000002d       0x2e c:/fpga/DE1-SoC_v.5.1.3_HWrevF.revG_SystemCD/Demonstrations/FPGA/DE1_SoC_SDRAM_Nios_Test/software/sdram_nios_test_v2_bsp/\libhal_bsp.a(alt_sbrk.o)
 .comment       0x000000000000002d       0x2e c:/fpga/DE1-SoC_v.5.1.3_HWrevF.revG_SystemCD/Demonstrations/FPGA/DE1_SoC_SDRAM_Nios_Test/software/sdram_nios_test_v2_bsp/\libhal_bsp.a(alt_tick.o)
 .comment       0x000000000000002d       0x2e c:/fpga/DE1-SoC_v.5.1.3_HWrevF.revG_SystemCD/Demonstrations/FPGA/DE1_SoC_SDRAM_Nios_Test/software/sdram_nios_test_v2_bsp/\libhal_bsp.a(alt_usleep.o)
 .comment       0x000000000000002d       0x2e c:/fpga/DE1-SoC_v.5.1.3_HWrevF.revG_SystemCD/Demonstrations/FPGA/DE1_SoC_SDRAM_Nios_Test/software/sdram_nios_test_v2_bsp/\libhal_bsp.a(alt_write.o)
 .comment       0x000000000000002d       0x2e c:/fpga/DE1-SoC_v.5.1.3_HWrevF.revG_SystemCD/Demonstrations/FPGA/DE1_SoC_SDRAM_Nios_Test/software/sdram_nios_test_v2_bsp/\libhal_bsp.a(alt_sys_init.o)
 .comment       0x000000000000002d       0x2e c:/fpga/DE1-SoC_v.5.1.3_HWrevF.revG_SystemCD/Demonstrations/FPGA/DE1_SoC_SDRAM_Nios_Test/software/sdram_nios_test_v2_bsp/\libhal_bsp.a(altera_avalon_jtag_uart_fd.o)
 .comment       0x000000000000002d       0x2e c:/fpga/DE1-SoC_v.5.1.3_HWrevF.revG_SystemCD/Demonstrations/FPGA/DE1_SoC_SDRAM_Nios_Test/software/sdram_nios_test_v2_bsp/\libhal_bsp.a(altera_avalon_jtag_uart_init.o)
 .comment       0x000000000000002d       0x2e c:/fpga/DE1-SoC_v.5.1.3_HWrevF.revG_SystemCD/Demonstrations/FPGA/DE1_SoC_SDRAM_Nios_Test/software/sdram_nios_test_v2_bsp/\libhal_bsp.a(altera_avalon_jtag_uart_ioctl.o)
 .comment       0x000000000000002d       0x2e c:/fpga/DE1-SoC_v.5.1.3_HWrevF.revG_SystemCD/Demonstrations/FPGA/DE1_SoC_SDRAM_Nios_Test/software/sdram_nios_test_v2_bsp/\libhal_bsp.a(altera_avalon_jtag_uart_read.o)
 .comment       0x000000000000002d       0x2e c:/fpga/DE1-SoC_v.5.1.3_HWrevF.revG_SystemCD/Demonstrations/FPGA/DE1_SoC_SDRAM_Nios_Test/software/sdram_nios_test_v2_bsp/\libhal_bsp.a(altera_avalon_jtag_uart_write.o)
 .comment       0x000000000000002d       0x2e c:/fpga/DE1-SoC_v.5.1.3_HWrevF.revG_SystemCD/Demonstrations/FPGA/DE1_SoC_SDRAM_Nios_Test/software/sdram_nios_test_v2_bsp/\libhal_bsp.a(altera_avalon_timer_sc.o)
 .comment       0x000000000000002d       0x2e c:/fpga/DE1-SoC_v.5.1.3_HWrevF.revG_SystemCD/Demonstrations/FPGA/DE1_SoC_SDRAM_Nios_Test/software/sdram_nios_test_v2_bsp/\libhal_bsp.a(alt_alarm_start.o)
 .comment       0x000000000000002d       0x2e c:/fpga/DE1-SoC_v.5.1.3_HWrevF.revG_SystemCD/Demonstrations/FPGA/DE1_SoC_SDRAM_Nios_Test/software/sdram_nios_test_v2_bsp/\libhal_bsp.a(alt_busy_sleep.o)
 .comment       0x000000000000002d       0x2e c:/fpga/DE1-SoC_v.5.1.3_HWrevF.revG_SystemCD/Demonstrations/FPGA/DE1_SoC_SDRAM_Nios_Test/software/sdram_nios_test_v2_bsp/\libhal_bsp.a(alt_dev_llist_insert.o)
 .comment       0x000000000000002d       0x2e c:/fpga/DE1-SoC_v.5.1.3_HWrevF.revG_SystemCD/Demonstrations/FPGA/DE1_SoC_SDRAM_Nios_Test/software/sdram_nios_test_v2_bsp/\libhal_bsp.a(alt_do_ctors.o)
 .comment       0x000000000000002d       0x2e c:/fpga/DE1-SoC_v.5.1.3_HWrevF.revG_SystemCD/Demonstrations/FPGA/DE1_SoC_SDRAM_Nios_Test/software/sdram_nios_test_v2_bsp/\libhal_bsp.a(alt_do_dtors.o)
 .comment       0x000000000000002d       0x2e c:/fpga/DE1-SoC_v.5.1.3_HWrevF.revG_SystemCD/Demonstrations/FPGA/DE1_SoC_SDRAM_Nios_Test/software/sdram_nios_test_v2_bsp/\libhal_bsp.a(alt_icache_flush_all.o)
 .comment       0x000000000000002d       0x2e c:/fpga/DE1-SoC_v.5.1.3_HWrevF.revG_SystemCD/Demonstrations/FPGA/DE1_SoC_SDRAM_Nios_Test/software/sdram_nios_test_v2_bsp/\libhal_bsp.a(alt_iic.o)
 .comment       0x000000000000002d       0x2e c:/fpga/DE1-SoC_v.5.1.3_HWrevF.revG_SystemCD/Demonstrations/FPGA/DE1_SoC_SDRAM_Nios_Test/software/sdram_nios_test_v2_bsp/\libhal_bsp.a(alt_iic_isr_register.o)
 .comment       0x000000000000002d       0x2e c:/fpga/DE1-SoC_v.5.1.3_HWrevF.revG_SystemCD/Demonstrations/FPGA/DE1_SoC_SDRAM_Nios_Test/software/sdram_nios_test_v2_bsp/\libhal_bsp.a(alt_io_redirect.o)
 .comment       0x000000000000002d       0x2e c:/fpga/DE1-SoC_v.5.1.3_HWrevF.revG_SystemCD/Demonstrations/FPGA/DE1_SoC_SDRAM_Nios_Test/software/sdram_nios_test_v2_bsp/\libhal_bsp.a(alt_irq_handler.o)
 .comment       0x000000000000002d       0x2e c:/fpga/DE1-SoC_v.5.1.3_HWrevF.revG_SystemCD/Demonstrations/FPGA/DE1_SoC_SDRAM_Nios_Test/software/sdram_nios_test_v2_bsp/\libhal_bsp.a(alt_irq_vars.o)
 .comment       0x000000000000002d       0x2e c:/fpga/DE1-SoC_v.5.1.3_HWrevF.revG_SystemCD/Demonstrations/FPGA/DE1_SoC_SDRAM_Nios_Test/software/sdram_nios_test_v2_bsp/\libhal_bsp.a(alt_open.o)
 .comment       0x000000000000002d       0x2e c:/fpga/DE1-SoC_v.5.1.3_HWrevF.revG_SystemCD/Demonstrations/FPGA/DE1_SoC_SDRAM_Nios_Test/software/sdram_nios_test_v2_bsp/\libhal_bsp.a(altera_nios2_gen2_irq.o)
 .comment       0x000000000000002d       0x2e c:/fpga/DE1-SoC_v.5.1.3_HWrevF.revG_SystemCD/Demonstrations/FPGA/DE1_SoC_SDRAM_Nios_Test/software/sdram_nios_test_v2_bsp/\libhal_bsp.a(alt_find_dev.o)
 .comment       0x000000000000002d       0x2e c:/fpga/DE1-SoC_v.5.1.3_HWrevF.revG_SystemCD/Demonstrations/FPGA/DE1_SoC_SDRAM_Nios_Test/software/sdram_nios_test_v2_bsp/\libhal_bsp.a(alt_find_file.o)
 .comment       0x000000000000002d       0x2e c:/fpga/DE1-SoC_v.5.1.3_HWrevF.revG_SystemCD/Demonstrations/FPGA/DE1_SoC_SDRAM_Nios_Test/software/sdram_nios_test_v2_bsp/\libhal_bsp.a(alt_get_fd.o)
 .comment       0x000000000000002d       0x2e c:/fpga/DE1-SoC_v.5.1.3_HWrevF.revG_SystemCD/Demonstrations/FPGA/DE1_SoC_SDRAM_Nios_Test/software/sdram_nios_test_v2_bsp/\libhal_bsp.a(alt_instruction_exception_entry.o)
 .comment       0x000000000000002d       0x2e c:/intelfpga_lite/20.1/nios2eds/bin/gnu/h-x86_64-mingw32/bin/../lib/gcc/nios2-elf/10.1.1/../../../../../H-x86_64-mingw32/nios2-elf/lib/mno-hw-mul\libc.a(lib_a-atexit.o)
 .comment       0x000000000000002d       0x2e c:/intelfpga_lite/20.1/nios2eds/bin/gnu/h-x86_64-mingw32/bin/../lib/gcc/nios2-elf/10.1.1/../../../../../H-x86_64-mingw32/nios2-elf/lib/mno-hw-mul\libc.a(lib_a-exit.o)
 .comment       0x000000000000002d       0x2e c:/intelfpga_lite/20.1/nios2eds/bin/gnu/h-x86_64-mingw32/bin/../lib/gcc/nios2-elf/10.1.1/../../../../../H-x86_64-mingw32/nios2-elf/lib/mno-hw-mul\libc.a(lib_a-memcmp.o)
 .comment       0x000000000000002d       0x2e c:/intelfpga_lite/20.1/nios2eds/bin/gnu/h-x86_64-mingw32/bin/../lib/gcc/nios2-elf/10.1.1/../../../../../H-x86_64-mingw32/nios2-elf/lib/mno-hw-mul\libc.a(lib_a-__atexit.o)
 .comment       0x000000000000002d       0x2e c:/intelfpga_lite/20.1/nios2eds/bin/gnu/h-x86_64-mingw32/bin/../lib/gcc/nios2-elf/10.1.1/../../../../../H-x86_64-mingw32/nios2-elf/lib/mno-hw-mul\libc.a(lib_a-__call_atexit.o)

.debug
 *(.debug)

.line
 *(.line)

.debug_srcinfo
 *(.debug_srcinfo)

.debug_sfnames
 *(.debug_sfnames)

.debug_aranges  0x0000000000000000     0x1158
 *(.debug_aranges)
 .debug_aranges
                0x0000000000000000       0x28 c:/fpga/DE1-SoC_v.5.1.3_HWrevF.revG_SystemCD/Demonstrations/FPGA/DE1_SoC_SDRAM_Nios_Test/software/sdram_nios_test_v2_bsp//obj/HAL/src/crt0.o
 .debug_aranges
                0x0000000000000028       0x20 obj/default/main.o
 .debug_aranges
                0x0000000000000048       0x20 obj/default/mem_verify.o
 .debug_aranges
                0x0000000000000068       0x20 c:/intelfpga_lite/20.1/nios2eds/bin/gnu/h-x86_64-mingw32/bin/../lib/gcc/nios2-elf/10.1.1/mno-hw-mul\libgcc.a(lib2-divmod.o)
 .debug_aranges
                0x0000000000000088       0x20 c:/intelfpga_lite/20.1/nios2eds/bin/gnu/h-x86_64-mingw32/bin/../lib/gcc/nios2-elf/10.1.1/mno-hw-mul\libgcc.a(lib2-mul.o)
 .debug_aranges
                0x00000000000000a8       0x20 c:/intelfpga_lite/20.1/nios2eds/bin/gnu/h-x86_64-mingw32/bin/../lib/gcc/nios2-elf/10.1.1/../../../../../H-x86_64-mingw32/nios2-elf/lib/mno-hw-mul\libc.a(lib_a-memcpy.o)
 .debug_aranges
                0x00000000000000c8       0x28 c:/intelfpga_lite/20.1/nios2eds/bin/gnu/h-x86_64-mingw32/bin/../lib/gcc/nios2-elf/10.1.1/../../../../../H-x86_64-mingw32/nios2-elf/lib/mno-hw-mul\libc.a(lib_a-printf.o)
 .debug_aranges
                0x00000000000000f0       0x28 c:/intelfpga_lite/20.1/nios2eds/bin/gnu/h-x86_64-mingw32/bin/../lib/gcc/nios2-elf/10.1.1/../../../../../H-x86_64-mingw32/nios2-elf/lib/mno-hw-mul\libc.a(lib_a-putchar.o)
 .debug_aranges
                0x0000000000000118       0x28 c:/intelfpga_lite/20.1/nios2eds/bin/gnu/h-x86_64-mingw32/bin/../lib/gcc/nios2-elf/10.1.1/../../../../../H-x86_64-mingw32/nios2-elf/lib/mno-hw-mul\libc.a(lib_a-puts.o)
 .debug_aranges
                0x0000000000000140       0x28 c:/intelfpga_lite/20.1/nios2eds/bin/gnu/h-x86_64-mingw32/bin/../lib/gcc/nios2-elf/10.1.1/../../../../../H-x86_64-mingw32/nios2-elf/lib/mno-hw-mul\libc.a(lib_a-rand.o)
 .debug_aranges
                0x0000000000000168       0x20 c:/intelfpga_lite/20.1/nios2eds/bin/gnu/h-x86_64-mingw32/bin/../lib/gcc/nios2-elf/10.1.1/../../../../../H-x86_64-mingw32/nios2-elf/lib/mno-hw-mul\libc.a(lib_a-strlen.o)
 .debug_aranges
                0x0000000000000188       0x30 c:/intelfpga_lite/20.1/nios2eds/bin/gnu/h-x86_64-mingw32/bin/../lib/gcc/nios2-elf/10.1.1/../../../../../H-x86_64-mingw32/nios2-elf/lib/mno-hw-mul\libc.a(lib_a-vfprintf.o)
 .debug_aranges
                0x00000000000001b8       0x20 c:/intelfpga_lite/20.1/nios2eds/bin/gnu/h-x86_64-mingw32/bin/../lib/gcc/nios2-elf/10.1.1/../../../../../H-x86_64-mingw32/nios2-elf/lib/mno-hw-mul\libc.a(lib_a-wsetup.o)
 .debug_aranges
                0x00000000000001d8       0x28 c:/intelfpga_lite/20.1/nios2eds/bin/gnu/h-x86_64-mingw32/bin/../lib/gcc/nios2-elf/10.1.1/../../../../../H-x86_64-mingw32/nios2-elf/lib/mno-hw-mul\libc.a(lib_a-dtoa.o)
 .debug_aranges
                0x0000000000000200       0x30 c:/intelfpga_lite/20.1/nios2eds/bin/gnu/h-x86_64-mingw32/bin/../lib/gcc/nios2-elf/10.1.1/../../../../../H-x86_64-mingw32/nios2-elf/lib/mno-hw-mul\libc.a(lib_a-fflush.o)
 .debug_aranges
                0x0000000000000230       0x68 c:/intelfpga_lite/20.1/nios2eds/bin/gnu/h-x86_64-mingw32/bin/../lib/gcc/nios2-elf/10.1.1/../../../../../H-x86_64-mingw32/nios2-elf/lib/mno-hw-mul\libc.a(lib_a-findfp.o)
 .debug_aranges
                0x0000000000000298       0x28 c:/intelfpga_lite/20.1/nios2eds/bin/gnu/h-x86_64-mingw32/bin/../lib/gcc/nios2-elf/10.1.1/../../../../../H-x86_64-mingw32/nios2-elf/lib/mno-hw-mul\libc.a(lib_a-freer.o)
 .debug_aranges
                0x00000000000002c0       0x20 c:/intelfpga_lite/20.1/nios2eds/bin/gnu/h-x86_64-mingw32/bin/../lib/gcc/nios2-elf/10.1.1/../../../../../H-x86_64-mingw32/nios2-elf/lib/mno-hw-mul\libc.a(lib_a-fvwrite.o)
 .debug_aranges
                0x00000000000002e0       0x28 c:/intelfpga_lite/20.1/nios2eds/bin/gnu/h-x86_64-mingw32/bin/../lib/gcc/nios2-elf/10.1.1/../../../../../H-x86_64-mingw32/nios2-elf/lib/mno-hw-mul\libc.a(lib_a-fwalk.o)
 .debug_aranges
                0x0000000000000308       0x18 c:/intelfpga_lite/20.1/nios2eds/bin/gnu/h-x86_64-mingw32/bin/../lib/gcc/nios2-elf/10.1.1/../../../../../H-x86_64-mingw32/nios2-elf/lib/mno-hw-mul\libc.a(lib_a-impure.o)
 .debug_aranges
                0x0000000000000320       0x30 c:/intelfpga_lite/20.1/nios2eds/bin/gnu/h-x86_64-mingw32/bin/../lib/gcc/nios2-elf/10.1.1/../../../../../H-x86_64-mingw32/nios2-elf/lib/mno-hw-mul\libc.a(lib_a-localeconv.o)
 .debug_aranges
                0x0000000000000350       0x28 c:/intelfpga_lite/20.1/nios2eds/bin/gnu/h-x86_64-mingw32/bin/../lib/gcc/nios2-elf/10.1.1/../../../../../H-x86_64-mingw32/nios2-elf/lib/mno-hw-mul\libc.a(lib_a-makebuf.o)
 .debug_aranges
                0x0000000000000378       0x20 c:/intelfpga_lite/20.1/nios2eds/bin/gnu/h-x86_64-mingw32/bin/../lib/gcc/nios2-elf/10.1.1/../../../../../H-x86_64-mingw32/nios2-elf/lib/mno-hw-mul\libc.a(lib_a-mallocr.o)
 .debug_aranges
                0x0000000000000398       0x20 c:/intelfpga_lite/20.1/nios2eds/bin/gnu/h-x86_64-mingw32/bin/../lib/gcc/nios2-elf/10.1.1/../../../../../H-x86_64-mingw32/nios2-elf/lib/mno-hw-mul\libc.a(lib_a-memchr.o)
 .debug_aranges
                0x00000000000003b8       0x20 c:/intelfpga_lite/20.1/nios2eds/bin/gnu/h-x86_64-mingw32/bin/../lib/gcc/nios2-elf/10.1.1/../../../../../H-x86_64-mingw32/nios2-elf/lib/mno-hw-mul\libc.a(lib_a-memmove.o)
 .debug_aranges
                0x00000000000003d8       0x20 c:/intelfpga_lite/20.1/nios2eds/bin/gnu/h-x86_64-mingw32/bin/../lib/gcc/nios2-elf/10.1.1/../../../../../H-x86_64-mingw32/nios2-elf/lib/mno-hw-mul\libc.a(lib_a-memset.o)
 .debug_aranges
                0x00000000000003f8       0xb0 c:/intelfpga_lite/20.1/nios2eds/bin/gnu/h-x86_64-mingw32/bin/../lib/gcc/nios2-elf/10.1.1/../../../../../H-x86_64-mingw32/nios2-elf/lib/mno-hw-mul\libc.a(lib_a-mprec.o)
 .debug_aranges
                0x00000000000004a8       0x28 c:/intelfpga_lite/20.1/nios2eds/bin/gnu/h-x86_64-mingw32/bin/../lib/gcc/nios2-elf/10.1.1/../../../../../H-x86_64-mingw32/nios2-elf/lib/mno-hw-mul\libc.a(lib_a-putc.o)
 .debug_aranges
                0x00000000000004d0       0x20 c:/intelfpga_lite/20.1/nios2eds/bin/gnu/h-x86_64-mingw32/bin/../lib/gcc/nios2-elf/10.1.1/../../../../../H-x86_64-mingw32/nios2-elf/lib/mno-hw-mul\libc.a(lib_a-reallocr.o)
 .debug_aranges
                0x00000000000004f0       0x20 c:/intelfpga_lite/20.1/nios2eds/bin/gnu/h-x86_64-mingw32/bin/../lib/gcc/nios2-elf/10.1.1/../../../../../H-x86_64-mingw32/nios2-elf/lib/mno-hw-mul\libc.a(lib_a-sbrkr.o)
 .debug_aranges
                0x0000000000000510       0x40 c:/intelfpga_lite/20.1/nios2eds/bin/gnu/h-x86_64-mingw32/bin/../lib/gcc/nios2-elf/10.1.1/../../../../../H-x86_64-mingw32/nios2-elf/lib/mno-hw-mul\libc.a(lib_a-stdio.o)
 .debug_aranges
                0x0000000000000550       0x40 c:/intelfpga_lite/20.1/nios2eds/bin/gnu/h-x86_64-mingw32/bin/../lib/gcc/nios2-elf/10.1.1/../../../../../H-x86_64-mingw32/nios2-elf/lib/mno-hw-mul\libc.a(lib_a-vfiprintf.o)
 .debug_aranges
                0x0000000000000590       0x28 c:/intelfpga_lite/20.1/nios2eds/bin/gnu/h-x86_64-mingw32/bin/../lib/gcc/nios2-elf/10.1.1/../../../../../H-x86_64-mingw32/nios2-elf/lib/mno-hw-mul\libc.a(lib_a-wbuf.o)
 .debug_aranges
                0x00000000000005b8       0x20 c:/intelfpga_lite/20.1/nios2eds/bin/gnu/h-x86_64-mingw32/bin/../lib/gcc/nios2-elf/10.1.1/../../../../../H-x86_64-mingw32/nios2-elf/lib/mno-hw-mul\libc.a(lib_a-writer.o)
 .debug_aranges
                0x00000000000005d8       0x20 c:/intelfpga_lite/20.1/nios2eds/bin/gnu/h-x86_64-mingw32/bin/../lib/gcc/nios2-elf/10.1.1/../../../../../H-x86_64-mingw32/nios2-elf/lib/mno-hw-mul\libc.a(closer.o)
 .debug_aranges
                0x00000000000005f8       0x28 c:/intelfpga_lite/20.1/nios2eds/bin/gnu/h-x86_64-mingw32/bin/../lib/gcc/nios2-elf/10.1.1/../../../../../H-x86_64-mingw32/nios2-elf/lib/mno-hw-mul\libc.a(lib_a-assert.o)
 .debug_aranges
                0x0000000000000620       0x20 c:/intelfpga_lite/20.1/nios2eds/bin/gnu/h-x86_64-mingw32/bin/../lib/gcc/nios2-elf/10.1.1/../../../../../H-x86_64-mingw32/nios2-elf/lib/mno-hw-mul\libc.a(lib_a-callocr.o)
 .debug_aranges
                0x0000000000000640       0x30 c:/intelfpga_lite/20.1/nios2eds/bin/gnu/h-x86_64-mingw32/bin/../lib/gcc/nios2-elf/10.1.1/../../../../../H-x86_64-mingw32/nios2-elf/lib/mno-hw-mul\libc.a(lib_a-fclose.o)
 .debug_aranges
                0x0000000000000670       0x28 c:/intelfpga_lite/20.1/nios2eds/bin/gnu/h-x86_64-mingw32/bin/../lib/gcc/nios2-elf/10.1.1/../../../../../H-x86_64-mingw32/nios2-elf/lib/mno-hw-mul\libc.a(lib_a-fiprintf.o)
 .debug_aranges
                0x0000000000000698       0x30 c:/intelfpga_lite/20.1/nios2eds/bin/gnu/h-x86_64-mingw32/bin/../lib/gcc/nios2-elf/10.1.1/../../../../../H-x86_64-mingw32/nios2-elf/lib/mno-hw-mul\libc.a(lib_a-fputwc.o)
 .debug_aranges
                0x00000000000006c8       0x20 c:/intelfpga_lite/20.1/nios2eds/bin/gnu/h-x86_64-mingw32/bin/../lib/gcc/nios2-elf/10.1.1/../../../../../H-x86_64-mingw32/nios2-elf/lib/mno-hw-mul\libc.a(lib_a-fstatr.o)
 .debug_aranges
                0x00000000000006e8       0x18 c:/intelfpga_lite/20.1/nios2eds/bin/gnu/h-x86_64-mingw32/bin/../lib/gcc/nios2-elf/10.1.1/../../../../../H-x86_64-mingw32/nios2-elf/lib/mno-hw-mul\libc.a(lib_a-int_errno.o)
 .debug_aranges
                0x0000000000000700       0x20 c:/intelfpga_lite/20.1/nios2eds/bin/gnu/h-x86_64-mingw32/bin/../lib/gcc/nios2-elf/10.1.1/../../../../../H-x86_64-mingw32/nios2-elf/lib/mno-hw-mul\libc.a(lib_a-isattyr.o)
 .debug_aranges
                0x0000000000000720       0x30 c:/intelfpga_lite/20.1/nios2eds/bin/gnu/h-x86_64-mingw32/bin/../lib/gcc/nios2-elf/10.1.1/../../../../../H-x86_64-mingw32/nios2-elf/lib/mno-hw-mul\libc.a(lib_a-locale.o)
 .debug_aranges
                0x0000000000000750       0x20 c:/intelfpga_lite/20.1/nios2eds/bin/gnu/h-x86_64-mingw32/bin/../lib/gcc/nios2-elf/10.1.1/../../../../../H-x86_64-mingw32/nios2-elf/lib/mno-hw-mul\libc.a(lib_a-lseekr.o)
 .debug_aranges
                0x0000000000000770       0x28 c:/intelfpga_lite/20.1/nios2eds/bin/gnu/h-x86_64-mingw32/bin/../lib/gcc/nios2-elf/10.1.1/../../../../../H-x86_64-mingw32/nios2-elf/lib/mno-hw-mul\libc.a(lib_a-mbtowc_r.o)
 .debug_aranges
                0x0000000000000798       0x20 c:/intelfpga_lite/20.1/nios2eds/bin/gnu/h-x86_64-mingw32/bin/../lib/gcc/nios2-elf/10.1.1/../../../../../H-x86_64-mingw32/nios2-elf/lib/mno-hw-mul\libc.a(lib_a-readr.o)
 .debug_aranges
                0x00000000000007b8       0x20 c:/intelfpga_lite/20.1/nios2eds/bin/gnu/h-x86_64-mingw32/bin/../lib/gcc/nios2-elf/10.1.1/../../../../../H-x86_64-mingw32/nios2-elf/lib/mno-hw-mul\libc.a(lib_a-strcmp.o)
 .debug_aranges
                0x00000000000007d8       0x20 c:/intelfpga_lite/20.1/nios2eds/bin/gnu/h-x86_64-mingw32/bin/../lib/gcc/nios2-elf/10.1.1/../../../../../H-x86_64-mingw32/nios2-elf/lib/mno-hw-mul\libc.a(lib_a-vfiprintfr_1.o)
 .debug_aranges
                0x00000000000007f8       0x28 c:/intelfpga_lite/20.1/nios2eds/bin/gnu/h-x86_64-mingw32/bin/../lib/gcc/nios2-elf/10.1.1/../../../../../H-x86_64-mingw32/nios2-elf/lib/mno-hw-mul\libc.a(lib_a-wcrtomb.o)
 .debug_aranges
                0x0000000000000820       0x28 c:/intelfpga_lite/20.1/nios2eds/bin/gnu/h-x86_64-mingw32/bin/../lib/gcc/nios2-elf/10.1.1/../../../../../H-x86_64-mingw32/nios2-elf/lib/mno-hw-mul\libc.a(lib_a-wctomb_r.o)
 .debug_aranges
                0x0000000000000848       0x20 c:/intelfpga_lite/20.1/nios2eds/bin/gnu/h-x86_64-mingw32/bin/../lib/gcc/nios2-elf/10.1.1/../../../../../H-x86_64-mingw32/nios2-elf/lib/mno-hw-mul\libc.a(lib_a-abort.o)
 .debug_aranges
                0x0000000000000868       0x18 c:/intelfpga_lite/20.1/nios2eds/bin/gnu/h-x86_64-mingw32/bin/../lib/gcc/nios2-elf/10.1.1/../../../../../H-x86_64-mingw32/nios2-elf/lib/mno-hw-mul\libc.a(lib_a-ctype_.o)
 .debug_aranges
                0x0000000000000880       0x58 c:/intelfpga_lite/20.1/nios2eds/bin/gnu/h-x86_64-mingw32/bin/../lib/gcc/nios2-elf/10.1.1/../../../../../H-x86_64-mingw32/nios2-elf/lib/mno-hw-mul\libc.a(lib_a-signal.o)
 .debug_aranges
                0x00000000000008d8       0x28 c:/intelfpga_lite/20.1/nios2eds/bin/gnu/h-x86_64-mingw32/bin/../lib/gcc/nios2-elf/10.1.1/../../../../../H-x86_64-mingw32/nios2-elf/lib/mno-hw-mul\libc.a(lib_a-signalr.o)
 .debug_aranges
                0x0000000000000900       0x20 c:/intelfpga_lite/20.1/nios2eds/bin/gnu/h-x86_64-mingw32/bin/../lib/gcc/nios2-elf/10.1.1/mno-hw-mul\libgcc.a(_muldi3.o)
 .debug_aranges
                0x0000000000000920       0x20 c:/intelfpga_lite/20.1/nios2eds/bin/gnu/h-x86_64-mingw32/bin/../lib/gcc/nios2-elf/10.1.1/mno-hw-mul\libgcc.a(_udivdi3.o)
 .debug_aranges
                0x0000000000000940       0x20 c:/intelfpga_lite/20.1/nios2eds/bin/gnu/h-x86_64-mingw32/bin/../lib/gcc/nios2-elf/10.1.1/mno-hw-mul\libgcc.a(_umoddi3.o)
 .debug_aranges
                0x0000000000000960       0x20 c:/intelfpga_lite/20.1/nios2eds/bin/gnu/h-x86_64-mingw32/bin/../lib/gcc/nios2-elf/10.1.1/mno-hw-mul\libgcc.a(adddf3.o)
 .debug_aranges
                0x0000000000000980       0x20 c:/intelfpga_lite/20.1/nios2eds/bin/gnu/h-x86_64-mingw32/bin/../lib/gcc/nios2-elf/10.1.1/mno-hw-mul\libgcc.a(divdf3.o)
 .debug_aranges
                0x00000000000009a0       0x20 c:/intelfpga_lite/20.1/nios2eds/bin/gnu/h-x86_64-mingw32/bin/../lib/gcc/nios2-elf/10.1.1/mno-hw-mul\libgcc.a(eqdf2.o)
 .debug_aranges
                0x00000000000009c0       0x20 c:/intelfpga_lite/20.1/nios2eds/bin/gnu/h-x86_64-mingw32/bin/../lib/gcc/nios2-elf/10.1.1/mno-hw-mul\libgcc.a(gedf2.o)
 .debug_aranges
                0x00000000000009e0       0x20 c:/intelfpga_lite/20.1/nios2eds/bin/gnu/h-x86_64-mingw32/bin/../lib/gcc/nios2-elf/10.1.1/mno-hw-mul\libgcc.a(ledf2.o)
 .debug_aranges
                0x0000000000000a00       0x20 c:/intelfpga_lite/20.1/nios2eds/bin/gnu/h-x86_64-mingw32/bin/../lib/gcc/nios2-elf/10.1.1/mno-hw-mul\libgcc.a(muldf3.o)
 .debug_aranges
                0x0000000000000a20       0x20 c:/intelfpga_lite/20.1/nios2eds/bin/gnu/h-x86_64-mingw32/bin/../lib/gcc/nios2-elf/10.1.1/mno-hw-mul\libgcc.a(subdf3.o)
 .debug_aranges
                0x0000000000000a40       0x20 c:/intelfpga_lite/20.1/nios2eds/bin/gnu/h-x86_64-mingw32/bin/../lib/gcc/nios2-elf/10.1.1/mno-hw-mul\libgcc.a(unorddf2.o)
 .debug_aranges
                0x0000000000000a60       0x20 c:/intelfpga_lite/20.1/nios2eds/bin/gnu/h-x86_64-mingw32/bin/../lib/gcc/nios2-elf/10.1.1/mno-hw-mul\libgcc.a(fixdfsi.o)
 .debug_aranges
                0x0000000000000a80       0x20 c:/intelfpga_lite/20.1/nios2eds/bin/gnu/h-x86_64-mingw32/bin/../lib/gcc/nios2-elf/10.1.1/mno-hw-mul\libgcc.a(floatsidf.o)
 .debug_aranges
                0x0000000000000aa0       0x20 c:/intelfpga_lite/20.1/nios2eds/bin/gnu/h-x86_64-mingw32/bin/../lib/gcc/nios2-elf/10.1.1/mno-hw-mul\libgcc.a(floatunsidf.o)
 .debug_aranges
                0x0000000000000ac0       0x18 c:/intelfpga_lite/20.1/nios2eds/bin/gnu/h-x86_64-mingw32/bin/../lib/gcc/nios2-elf/10.1.1/mno-hw-mul\libgcc.a(_clz.o)
 .debug_aranges
                0x0000000000000ad8       0x20 c:/intelfpga_lite/20.1/nios2eds/bin/gnu/h-x86_64-mingw32/bin/../lib/gcc/nios2-elf/10.1.1/mno-hw-mul\libgcc.a(_clzsi2.o)
 .debug_aranges
                0x0000000000000af8       0x20 c:/fpga/DE1-SoC_v.5.1.3_HWrevF.revG_SystemCD/Demonstrations/FPGA/DE1_SoC_SDRAM_Nios_Test/software/sdram_nios_test_v2_bsp/\libhal_bsp.a(alt_close.o)
 .debug_aranges
                0x0000000000000b18       0x20 c:/fpga/DE1-SoC_v.5.1.3_HWrevF.revG_SystemCD/Demonstrations/FPGA/DE1_SoC_SDRAM_Nios_Test/software/sdram_nios_test_v2_bsp/\libhal_bsp.a(alt_dcache_flush_all.o)
 .debug_aranges
                0x0000000000000b38       0x20 c:/fpga/DE1-SoC_v.5.1.3_HWrevF.revG_SystemCD/Demonstrations/FPGA/DE1_SoC_SDRAM_Nios_Test/software/sdram_nios_test_v2_bsp/\libhal_bsp.a(alt_dev.o)
 .debug_aranges
                0x0000000000000b58       0x18 c:/fpga/DE1-SoC_v.5.1.3_HWrevF.revG_SystemCD/Demonstrations/FPGA/DE1_SoC_SDRAM_Nios_Test/software/sdram_nios_test_v2_bsp/\libhal_bsp.a(alt_errno.o)
 .debug_aranges
                0x0000000000000b70       0x20 c:/fpga/DE1-SoC_v.5.1.3_HWrevF.revG_SystemCD/Demonstrations/FPGA/DE1_SoC_SDRAM_Nios_Test/software/sdram_nios_test_v2_bsp/\libhal_bsp.a(alt_exit.o)
 .debug_aranges
                0x0000000000000b90       0x20 c:/fpga/DE1-SoC_v.5.1.3_HWrevF.revG_SystemCD/Demonstrations/FPGA/DE1_SoC_SDRAM_Nios_Test/software/sdram_nios_test_v2_bsp/\libhal_bsp.a(alt_fstat.o)
 .debug_aranges
                0x0000000000000bb0       0x20 c:/fpga/DE1-SoC_v.5.1.3_HWrevF.revG_SystemCD/Demonstrations/FPGA/DE1_SoC_SDRAM_Nios_Test/software/sdram_nios_test_v2_bsp/\libhal_bsp.a(alt_getpid.o)
 .debug_aranges
                0x0000000000000bd0       0x20 c:/fpga/DE1-SoC_v.5.1.3_HWrevF.revG_SystemCD/Demonstrations/FPGA/DE1_SoC_SDRAM_Nios_Test/software/sdram_nios_test_v2_bsp/\libhal_bsp.a(alt_isatty.o)
 .debug_aranges
                0x0000000000000bf0       0x20 c:/fpga/DE1-SoC_v.5.1.3_HWrevF.revG_SystemCD/Demonstrations/FPGA/DE1_SoC_SDRAM_Nios_Test/software/sdram_nios_test_v2_bsp/\libhal_bsp.a(alt_kill.o)
 .debug_aranges
                0x0000000000000c10       0x20 c:/fpga/DE1-SoC_v.5.1.3_HWrevF.revG_SystemCD/Demonstrations/FPGA/DE1_SoC_SDRAM_Nios_Test/software/sdram_nios_test_v2_bsp/\libhal_bsp.a(alt_load.o)
 .debug_aranges
                0x0000000000000c30       0x20 c:/fpga/DE1-SoC_v.5.1.3_HWrevF.revG_SystemCD/Demonstrations/FPGA/DE1_SoC_SDRAM_Nios_Test/software/sdram_nios_test_v2_bsp/\libhal_bsp.a(alt_lseek.o)
 .debug_aranges
                0x0000000000000c50       0x20 c:/fpga/DE1-SoC_v.5.1.3_HWrevF.revG_SystemCD/Demonstrations/FPGA/DE1_SoC_SDRAM_Nios_Test/software/sdram_nios_test_v2_bsp/\libhal_bsp.a(alt_main.o)
 .debug_aranges
                0x0000000000000c70       0x20 c:/fpga/DE1-SoC_v.5.1.3_HWrevF.revG_SystemCD/Demonstrations/FPGA/DE1_SoC_SDRAM_Nios_Test/software/sdram_nios_test_v2_bsp/\libhal_bsp.a(alt_malloc_lock.o)
 .debug_aranges
                0x0000000000000c90       0x20 c:/fpga/DE1-SoC_v.5.1.3_HWrevF.revG_SystemCD/Demonstrations/FPGA/DE1_SoC_SDRAM_Nios_Test/software/sdram_nios_test_v2_bsp/\libhal_bsp.a(alt_read.o)
 .debug_aranges
                0x0000000000000cb0       0x20 c:/fpga/DE1-SoC_v.5.1.3_HWrevF.revG_SystemCD/Demonstrations/FPGA/DE1_SoC_SDRAM_Nios_Test/software/sdram_nios_test_v2_bsp/\libhal_bsp.a(alt_release_fd.o)
 .debug_aranges
                0x0000000000000cd0       0x20 c:/fpga/DE1-SoC_v.5.1.3_HWrevF.revG_SystemCD/Demonstrations/FPGA/DE1_SoC_SDRAM_Nios_Test/software/sdram_nios_test_v2_bsp/\libhal_bsp.a(alt_sbrk.o)
 .debug_aranges
                0x0000000000000cf0       0x20 c:/fpga/DE1-SoC_v.5.1.3_HWrevF.revG_SystemCD/Demonstrations/FPGA/DE1_SoC_SDRAM_Nios_Test/software/sdram_nios_test_v2_bsp/\libhal_bsp.a(alt_tick.o)
 .debug_aranges
                0x0000000000000d10       0x20 c:/fpga/DE1-SoC_v.5.1.3_HWrevF.revG_SystemCD/Demonstrations/FPGA/DE1_SoC_SDRAM_Nios_Test/software/sdram_nios_test_v2_bsp/\libhal_bsp.a(alt_usleep.o)
 .debug_aranges
                0x0000000000000d30       0x20 c:/fpga/DE1-SoC_v.5.1.3_HWrevF.revG_SystemCD/Demonstrations/FPGA/DE1_SoC_SDRAM_Nios_Test/software/sdram_nios_test_v2_bsp/\libhal_bsp.a(alt_write.o)
 .debug_aranges
                0x0000000000000d50       0x20 c:/fpga/DE1-SoC_v.5.1.3_HWrevF.revG_SystemCD/Demonstrations/FPGA/DE1_SoC_SDRAM_Nios_Test/software/sdram_nios_test_v2_bsp/\libhal_bsp.a(alt_sys_init.o)
 .debug_aranges
                0x0000000000000d70       0x20 c:/fpga/DE1-SoC_v.5.1.3_HWrevF.revG_SystemCD/Demonstrations/FPGA/DE1_SoC_SDRAM_Nios_Test/software/sdram_nios_test_v2_bsp/\libhal_bsp.a(altera_avalon_jtag_uart_fd.o)
 .debug_aranges
                0x0000000000000d90       0x20 c:/fpga/DE1-SoC_v.5.1.3_HWrevF.revG_SystemCD/Demonstrations/FPGA/DE1_SoC_SDRAM_Nios_Test/software/sdram_nios_test_v2_bsp/\libhal_bsp.a(altera_avalon_jtag_uart_init.o)
 .debug_aranges
                0x0000000000000db0       0x20 c:/fpga/DE1-SoC_v.5.1.3_HWrevF.revG_SystemCD/Demonstrations/FPGA/DE1_SoC_SDRAM_Nios_Test/software/sdram_nios_test_v2_bsp/\libhal_bsp.a(altera_avalon_jtag_uart_ioctl.o)
 .debug_aranges
                0x0000000000000dd0       0x20 c:/fpga/DE1-SoC_v.5.1.3_HWrevF.revG_SystemCD/Demonstrations/FPGA/DE1_SoC_SDRAM_Nios_Test/software/sdram_nios_test_v2_bsp/\libhal_bsp.a(altera_avalon_jtag_uart_read.o)
 .debug_aranges
                0x0000000000000df0       0x20 c:/fpga/DE1-SoC_v.5.1.3_HWrevF.revG_SystemCD/Demonstrations/FPGA/DE1_SoC_SDRAM_Nios_Test/software/sdram_nios_test_v2_bsp/\libhal_bsp.a(altera_avalon_jtag_uart_write.o)
 .debug_aranges
                0x0000000000000e10       0x20 c:/fpga/DE1-SoC_v.5.1.3_HWrevF.revG_SystemCD/Demonstrations/FPGA/DE1_SoC_SDRAM_Nios_Test/software/sdram_nios_test_v2_bsp/\libhal_bsp.a(altera_avalon_timer_sc.o)
 .debug_aranges
                0x0000000000000e30       0x20 c:/fpga/DE1-SoC_v.5.1.3_HWrevF.revG_SystemCD/Demonstrations/FPGA/DE1_SoC_SDRAM_Nios_Test/software/sdram_nios_test_v2_bsp/\libhal_bsp.a(alt_alarm_start.o)
 .debug_aranges
                0x0000000000000e50       0x20 c:/fpga/DE1-SoC_v.5.1.3_HWrevF.revG_SystemCD/Demonstrations/FPGA/DE1_SoC_SDRAM_Nios_Test/software/sdram_nios_test_v2_bsp/\libhal_bsp.a(alt_busy_sleep.o)
 .debug_aranges
                0x0000000000000e70       0x20 c:/fpga/DE1-SoC_v.5.1.3_HWrevF.revG_SystemCD/Demonstrations/FPGA/DE1_SoC_SDRAM_Nios_Test/software/sdram_nios_test_v2_bsp/\libhal_bsp.a(alt_dev_llist_insert.o)
 .debug_aranges
                0x0000000000000e90       0x20 c:/fpga/DE1-SoC_v.5.1.3_HWrevF.revG_SystemCD/Demonstrations/FPGA/DE1_SoC_SDRAM_Nios_Test/software/sdram_nios_test_v2_bsp/\libhal_bsp.a(alt_do_ctors.o)
 .debug_aranges
                0x0000000000000eb0       0x20 c:/fpga/DE1-SoC_v.5.1.3_HWrevF.revG_SystemCD/Demonstrations/FPGA/DE1_SoC_SDRAM_Nios_Test/software/sdram_nios_test_v2_bsp/\libhal_bsp.a(alt_do_dtors.o)
 .debug_aranges
                0x0000000000000ed0       0x20 c:/fpga/DE1-SoC_v.5.1.3_HWrevF.revG_SystemCD/Demonstrations/FPGA/DE1_SoC_SDRAM_Nios_Test/software/sdram_nios_test_v2_bsp/\libhal_bsp.a(alt_icache_flush_all.o)
 .debug_aranges
                0x0000000000000ef0       0x20 c:/fpga/DE1-SoC_v.5.1.3_HWrevF.revG_SystemCD/Demonstrations/FPGA/DE1_SoC_SDRAM_Nios_Test/software/sdram_nios_test_v2_bsp/\libhal_bsp.a(alt_iic.o)
 .debug_aranges
                0x0000000000000f10       0x20 c:/fpga/DE1-SoC_v.5.1.3_HWrevF.revG_SystemCD/Demonstrations/FPGA/DE1_SoC_SDRAM_Nios_Test/software/sdram_nios_test_v2_bsp/\libhal_bsp.a(alt_iic_isr_register.o)
 .debug_aranges
                0x0000000000000f30       0x20 c:/fpga/DE1-SoC_v.5.1.3_HWrevF.revG_SystemCD/Demonstrations/FPGA/DE1_SoC_SDRAM_Nios_Test/software/sdram_nios_test_v2_bsp/\libhal_bsp.a(alt_io_redirect.o)
 .debug_aranges
                0x0000000000000f50       0x30 c:/fpga/DE1-SoC_v.5.1.3_HWrevF.revG_SystemCD/Demonstrations/FPGA/DE1_SoC_SDRAM_Nios_Test/software/sdram_nios_test_v2_bsp/\libhal_bsp.a(alt_irq_entry.o)
 .debug_aranges
                0x0000000000000f80       0x20 c:/fpga/DE1-SoC_v.5.1.3_HWrevF.revG_SystemCD/Demonstrations/FPGA/DE1_SoC_SDRAM_Nios_Test/software/sdram_nios_test_v2_bsp/\libhal_bsp.a(alt_irq_handler.o)
 .debug_aranges
                0x0000000000000fa0       0x18 c:/fpga/DE1-SoC_v.5.1.3_HWrevF.revG_SystemCD/Demonstrations/FPGA/DE1_SoC_SDRAM_Nios_Test/software/sdram_nios_test_v2_bsp/\libhal_bsp.a(alt_irq_vars.o)
 .debug_aranges
                0x0000000000000fb8       0x20 c:/fpga/DE1-SoC_v.5.1.3_HWrevF.revG_SystemCD/Demonstrations/FPGA/DE1_SoC_SDRAM_Nios_Test/software/sdram_nios_test_v2_bsp/\libhal_bsp.a(alt_open.o)
 .debug_aranges
                0x0000000000000fd8       0x20 c:/fpga/DE1-SoC_v.5.1.3_HWrevF.revG_SystemCD/Demonstrations/FPGA/DE1_SoC_SDRAM_Nios_Test/software/sdram_nios_test_v2_bsp/\libhal_bsp.a(altera_nios2_gen2_irq.o)
 .debug_aranges
                0x0000000000000ff8       0x38 c:/fpga/DE1-SoC_v.5.1.3_HWrevF.revG_SystemCD/Demonstrations/FPGA/DE1_SoC_SDRAM_Nios_Test/software/sdram_nios_test_v2_bsp/\libhal_bsp.a(alt_exception_entry.o)
 .debug_aranges
                0x0000000000001030       0x20 c:/fpga/DE1-SoC_v.5.1.3_HWrevF.revG_SystemCD/Demonstrations/FPGA/DE1_SoC_SDRAM_Nios_Test/software/sdram_nios_test_v2_bsp/\libhal_bsp.a(alt_find_dev.o)
 .debug_aranges
                0x0000000000001050       0x20 c:/fpga/DE1-SoC_v.5.1.3_HWrevF.revG_SystemCD/Demonstrations/FPGA/DE1_SoC_SDRAM_Nios_Test/software/sdram_nios_test_v2_bsp/\libhal_bsp.a(alt_find_file.o)
 .debug_aranges
                0x0000000000001070       0x20 c:/fpga/DE1-SoC_v.5.1.3_HWrevF.revG_SystemCD/Demonstrations/FPGA/DE1_SoC_SDRAM_Nios_Test/software/sdram_nios_test_v2_bsp/\libhal_bsp.a(alt_get_fd.o)
 .debug_aranges
                0x0000000000001090       0x28 c:/fpga/DE1-SoC_v.5.1.3_HWrevF.revG_SystemCD/Demonstrations/FPGA/DE1_SoC_SDRAM_Nios_Test/software/sdram_nios_test_v2_bsp/\libhal_bsp.a(alt_instruction_exception_entry.o)
 .debug_aranges
                0x00000000000010b8       0x20 c:/intelfpga_lite/20.1/nios2eds/bin/gnu/h-x86_64-mingw32/bin/../lib/gcc/nios2-elf/10.1.1/../../../../../H-x86_64-mingw32/nios2-elf/lib/mno-hw-mul\libc.a(lib_a-atexit.o)
 .debug_aranges
                0x00000000000010d8       0x20 c:/intelfpga_lite/20.1/nios2eds/bin/gnu/h-x86_64-mingw32/bin/../lib/gcc/nios2-elf/10.1.1/../../../../../H-x86_64-mingw32/nios2-elf/lib/mno-hw-mul\libc.a(lib_a-exit.o)
 .debug_aranges
                0x00000000000010f8       0x20 c:/intelfpga_lite/20.1/nios2eds/bin/gnu/h-x86_64-mingw32/bin/../lib/gcc/nios2-elf/10.1.1/../../../../../H-x86_64-mingw32/nios2-elf/lib/mno-hw-mul\libc.a(lib_a-memcmp.o)
 .debug_aranges
                0x0000000000001118       0x20 c:/intelfpga_lite/20.1/nios2eds/bin/gnu/h-x86_64-mingw32/bin/../lib/gcc/nios2-elf/10.1.1/../../../../../H-x86_64-mingw32/nios2-elf/lib/mno-hw-mul\libc.a(lib_a-__atexit.o)
 .debug_aranges
                0x0000000000001138       0x20 c:/intelfpga_lite/20.1/nios2eds/bin/gnu/h-x86_64-mingw32/bin/../lib/gcc/nios2-elf/10.1.1/../../../../../H-x86_64-mingw32/nios2-elf/lib/mno-hw-mul\libc.a(lib_a-__call_atexit.o)

.debug_pubnames
 *(.debug_pubnames)

.debug_info     0x0000000000000000    0x30176
 *(.debug_info .gnu.linkonce.wi.*)
 .debug_info    0x0000000000000000       0x22 c:/fpga/DE1-SoC_v.5.1.3_HWrevF.revG_SystemCD/Demonstrations/FPGA/DE1_SoC_SDRAM_Nios_Test/software/sdram_nios_test_v2_bsp//obj/HAL/src/crt0.o
 .debug_info    0x0000000000000022      0x183 obj/default/main.o
 .debug_info    0x00000000000001a5      0x2ea obj/default/mem_verify.o
 .debug_info    0x000000000000048f      0x368 c:/intelfpga_lite/20.1/nios2eds/bin/gnu/h-x86_64-mingw32/bin/../lib/gcc/nios2-elf/10.1.1/mno-hw-mul\libgcc.a(lib2-divmod.o)
 .debug_info    0x00000000000007f7       0xcb c:/intelfpga_lite/20.1/nios2eds/bin/gnu/h-x86_64-mingw32/bin/../lib/gcc/nios2-elf/10.1.1/mno-hw-mul\libgcc.a(lib2-mul.o)
 .debug_info    0x00000000000008c2      0x162 c:/intelfpga_lite/20.1/nios2eds/bin/gnu/h-x86_64-mingw32/bin/../lib/gcc/nios2-elf/10.1.1/../../../../../H-x86_64-mingw32/nios2-elf/lib/mno-hw-mul\libc.a(lib_a-memcpy.o)
 .debug_info    0x0000000000000a24      0xa3e c:/intelfpga_lite/20.1/nios2eds/bin/gnu/h-x86_64-mingw32/bin/../lib/gcc/nios2-elf/10.1.1/../../../../../H-x86_64-mingw32/nios2-elf/lib/mno-hw-mul\libc.a(lib_a-printf.o)
 .debug_info    0x0000000000001462      0x9b8 c:/intelfpga_lite/20.1/nios2eds/bin/gnu/h-x86_64-mingw32/bin/../lib/gcc/nios2-elf/10.1.1/../../../../../H-x86_64-mingw32/nios2-elf/lib/mno-hw-mul\libc.a(lib_a-putchar.o)
 .debug_info    0x0000000000001e1a      0xae3 c:/intelfpga_lite/20.1/nios2eds/bin/gnu/h-x86_64-mingw32/bin/../lib/gcc/nios2-elf/10.1.1/../../../../../H-x86_64-mingw32/nios2-elf/lib/mno-hw-mul\libc.a(lib_a-puts.o)
 .debug_info    0x00000000000028fd      0x971 c:/intelfpga_lite/20.1/nios2eds/bin/gnu/h-x86_64-mingw32/bin/../lib/gcc/nios2-elf/10.1.1/../../../../../H-x86_64-mingw32/nios2-elf/lib/mno-hw-mul\libc.a(lib_a-rand.o)
 .debug_info    0x000000000000326e       0xee c:/intelfpga_lite/20.1/nios2eds/bin/gnu/h-x86_64-mingw32/bin/../lib/gcc/nios2-elf/10.1.1/../../../../../H-x86_64-mingw32/nios2-elf/lib/mno-hw-mul\libc.a(lib_a-strlen.o)
 .debug_info    0x000000000000335c     0x1b5a c:/intelfpga_lite/20.1/nios2eds/bin/gnu/h-x86_64-mingw32/bin/../lib/gcc/nios2-elf/10.1.1/../../../../../H-x86_64-mingw32/nios2-elf/lib/mno-hw-mul\libc.a(lib_a-vfprintf.o)
 .debug_info    0x0000000000004eb6      0x9c9 c:/intelfpga_lite/20.1/nios2eds/bin/gnu/h-x86_64-mingw32/bin/../lib/gcc/nios2-elf/10.1.1/../../../../../H-x86_64-mingw32/nios2-elf/lib/mno-hw-mul\libc.a(lib_a-wsetup.o)
 .debug_info    0x000000000000587f     0x1a5b c:/intelfpga_lite/20.1/nios2eds/bin/gnu/h-x86_64-mingw32/bin/../lib/gcc/nios2-elf/10.1.1/../../../../../H-x86_64-mingw32/nios2-elf/lib/mno-hw-mul\libc.a(lib_a-dtoa.o)
 .debug_info    0x00000000000072da      0xbf6 c:/intelfpga_lite/20.1/nios2eds/bin/gnu/h-x86_64-mingw32/bin/../lib/gcc/nios2-elf/10.1.1/../../../../../H-x86_64-mingw32/nios2-elf/lib/mno-hw-mul\libc.a(lib_a-fflush.o)
 .debug_info    0x0000000000007ed0      0xefa c:/intelfpga_lite/20.1/nios2eds/bin/gnu/h-x86_64-mingw32/bin/../lib/gcc/nios2-elf/10.1.1/../../../../../H-x86_64-mingw32/nios2-elf/lib/mno-hw-mul\libc.a(lib_a-findfp.o)
 .debug_info    0x0000000000008dca      0xced c:/intelfpga_lite/20.1/nios2eds/bin/gnu/h-x86_64-mingw32/bin/../lib/gcc/nios2-elf/10.1.1/../../../../../H-x86_64-mingw32/nios2-elf/lib/mno-hw-mul\libc.a(lib_a-freer.o)
 .debug_info    0x0000000000009ab7      0xcb2 c:/intelfpga_lite/20.1/nios2eds/bin/gnu/h-x86_64-mingw32/bin/../lib/gcc/nios2-elf/10.1.1/../../../../../H-x86_64-mingw32/nios2-elf/lib/mno-hw-mul\libc.a(lib_a-fvwrite.o)
 .debug_info    0x000000000000a769      0xa6d c:/intelfpga_lite/20.1/nios2eds/bin/gnu/h-x86_64-mingw32/bin/../lib/gcc/nios2-elf/10.1.1/../../../../../H-x86_64-mingw32/nios2-elf/lib/mno-hw-mul\libc.a(lib_a-fwalk.o)
 .debug_info    0x000000000000b1d6      0x931 c:/intelfpga_lite/20.1/nios2eds/bin/gnu/h-x86_64-mingw32/bin/../lib/gcc/nios2-elf/10.1.1/../../../../../H-x86_64-mingw32/nios2-elf/lib/mno-hw-mul\libc.a(lib_a-impure.o)
 .debug_info    0x000000000000bb07      0xc39 c:/intelfpga_lite/20.1/nios2eds/bin/gnu/h-x86_64-mingw32/bin/../lib/gcc/nios2-elf/10.1.1/../../../../../H-x86_64-mingw32/nios2-elf/lib/mno-hw-mul\libc.a(lib_a-localeconv.o)
 .debug_info    0x000000000000c740      0xe0b c:/intelfpga_lite/20.1/nios2eds/bin/gnu/h-x86_64-mingw32/bin/../lib/gcc/nios2-elf/10.1.1/../../../../../H-x86_64-mingw32/nios2-elf/lib/mno-hw-mul\libc.a(lib_a-makebuf.o)
 .debug_info    0x000000000000d54b      0xe9a c:/intelfpga_lite/20.1/nios2eds/bin/gnu/h-x86_64-mingw32/bin/../lib/gcc/nios2-elf/10.1.1/../../../../../H-x86_64-mingw32/nios2-elf/lib/mno-hw-mul\libc.a(lib_a-mallocr.o)
 .debug_info    0x000000000000e3e5      0x155 c:/intelfpga_lite/20.1/nios2eds/bin/gnu/h-x86_64-mingw32/bin/../lib/gcc/nios2-elf/10.1.1/../../../../../H-x86_64-mingw32/nios2-elf/lib/mno-hw-mul\libc.a(lib_a-memchr.o)
 .debug_info    0x000000000000e53a      0x158 c:/intelfpga_lite/20.1/nios2eds/bin/gnu/h-x86_64-mingw32/bin/../lib/gcc/nios2-elf/10.1.1/../../../../../H-x86_64-mingw32/nios2-elf/lib/mno-hw-mul\libc.a(lib_a-memmove.o)
 .debug_info    0x000000000000e692      0x13d c:/intelfpga_lite/20.1/nios2eds/bin/gnu/h-x86_64-mingw32/bin/../lib/gcc/nios2-elf/10.1.1/../../../../../H-x86_64-mingw32/nios2-elf/lib/mno-hw-mul\libc.a(lib_a-memset.o)
 .debug_info    0x000000000000e7cf     0x217e c:/intelfpga_lite/20.1/nios2eds/bin/gnu/h-x86_64-mingw32/bin/../lib/gcc/nios2-elf/10.1.1/../../../../../H-x86_64-mingw32/nios2-elf/lib/mno-hw-mul\libc.a(lib_a-mprec.o)
 .debug_info    0x000000000001094d      0xa6a c:/intelfpga_lite/20.1/nios2eds/bin/gnu/h-x86_64-mingw32/bin/../lib/gcc/nios2-elf/10.1.1/../../../../../H-x86_64-mingw32/nios2-elf/lib/mno-hw-mul\libc.a(lib_a-putc.o)
 .debug_info    0x00000000000113b7      0xd8d c:/intelfpga_lite/20.1/nios2eds/bin/gnu/h-x86_64-mingw32/bin/../lib/gcc/nios2-elf/10.1.1/../../../../../H-x86_64-mingw32/nios2-elf/lib/mno-hw-mul\libc.a(lib_a-reallocr.o)
 .debug_info    0x0000000000012144      0x994 c:/intelfpga_lite/20.1/nios2eds/bin/gnu/h-x86_64-mingw32/bin/../lib/gcc/nios2-elf/10.1.1/../../../../../H-x86_64-mingw32/nios2-elf/lib/mno-hw-mul\libc.a(lib_a-sbrkr.o)
 .debug_info    0x0000000000012ad8      0xc23 c:/intelfpga_lite/20.1/nios2eds/bin/gnu/h-x86_64-mingw32/bin/../lib/gcc/nios2-elf/10.1.1/../../../../../H-x86_64-mingw32/nios2-elf/lib/mno-hw-mul\libc.a(lib_a-stdio.o)
 .debug_info    0x00000000000136fb     0x1a05 c:/intelfpga_lite/20.1/nios2eds/bin/gnu/h-x86_64-mingw32/bin/../lib/gcc/nios2-elf/10.1.1/../../../../../H-x86_64-mingw32/nios2-elf/lib/mno-hw-mul\libc.a(lib_a-vfiprintf.o)
 .debug_info    0x0000000000015100      0xa66 c:/intelfpga_lite/20.1/nios2eds/bin/gnu/h-x86_64-mingw32/bin/../lib/gcc/nios2-elf/10.1.1/../../../../../H-x86_64-mingw32/nios2-elf/lib/mno-hw-mul\libc.a(lib_a-wbuf.o)
 .debug_info    0x0000000000015b66      0x9c6 c:/intelfpga_lite/20.1/nios2eds/bin/gnu/h-x86_64-mingw32/bin/../lib/gcc/nios2-elf/10.1.1/../../../../../H-x86_64-mingw32/nios2-elf/lib/mno-hw-mul\libc.a(lib_a-writer.o)
 .debug_info    0x000000000001652c      0x971 c:/intelfpga_lite/20.1/nios2eds/bin/gnu/h-x86_64-mingw32/bin/../lib/gcc/nios2-elf/10.1.1/../../../../../H-x86_64-mingw32/nios2-elf/lib/mno-hw-mul\libc.a(closer.o)
 .debug_info    0x0000000000016e9d      0xa1e c:/intelfpga_lite/20.1/nios2eds/bin/gnu/h-x86_64-mingw32/bin/../lib/gcc/nios2-elf/10.1.1/../../../../../H-x86_64-mingw32/nios2-elf/lib/mno-hw-mul\libc.a(lib_a-assert.o)
 .debug_info    0x00000000000178bb      0xa8c c:/intelfpga_lite/20.1/nios2eds/bin/gnu/h-x86_64-mingw32/bin/../lib/gcc/nios2-elf/10.1.1/../../../../../H-x86_64-mingw32/nios2-elf/lib/mno-hw-mul\libc.a(lib_a-callocr.o)
 .debug_info    0x0000000000018347      0xb4b c:/intelfpga_lite/20.1/nios2eds/bin/gnu/h-x86_64-mingw32/bin/../lib/gcc/nios2-elf/10.1.1/../../../../../H-x86_64-mingw32/nios2-elf/lib/mno-hw-mul\libc.a(lib_a-fclose.o)
 .debug_info    0x0000000000018e92      0xa69 c:/intelfpga_lite/20.1/nios2eds/bin/gnu/h-x86_64-mingw32/bin/../lib/gcc/nios2-elf/10.1.1/../../../../../H-x86_64-mingw32/nios2-elf/lib/mno-hw-mul\libc.a(lib_a-fiprintf.o)
 .debug_info    0x00000000000198fb      0xbb1 c:/intelfpga_lite/20.1/nios2eds/bin/gnu/h-x86_64-mingw32/bin/../lib/gcc/nios2-elf/10.1.1/../../../../../H-x86_64-mingw32/nios2-elf/lib/mno-hw-mul\libc.a(lib_a-fputwc.o)
 .debug_info    0x000000000001a4ac      0xb8a c:/intelfpga_lite/20.1/nios2eds/bin/gnu/h-x86_64-mingw32/bin/../lib/gcc/nios2-elf/10.1.1/../../../../../H-x86_64-mingw32/nios2-elf/lib/mno-hw-mul\libc.a(lib_a-fstatr.o)
 .debug_info    0x000000000001b036       0x84 c:/intelfpga_lite/20.1/nios2eds/bin/gnu/h-x86_64-mingw32/bin/../lib/gcc/nios2-elf/10.1.1/../../../../../H-x86_64-mingw32/nios2-elf/lib/mno-hw-mul\libc.a(lib_a-int_errno.o)
 .debug_info    0x000000000001b0ba      0x971 c:/intelfpga_lite/20.1/nios2eds/bin/gnu/h-x86_64-mingw32/bin/../lib/gcc/nios2-elf/10.1.1/../../../../../H-x86_64-mingw32/nios2-elf/lib/mno-hw-mul\libc.a(lib_a-isattyr.o)
 .debug_info    0x000000000001ba2b      0xd9f c:/intelfpga_lite/20.1/nios2eds/bin/gnu/h-x86_64-mingw32/bin/../lib/gcc/nios2-elf/10.1.1/../../../../../H-x86_64-mingw32/nios2-elf/lib/mno-hw-mul\libc.a(lib_a-locale.o)
 .debug_info    0x000000000001c7ca      0x9a7 c:/intelfpga_lite/20.1/nios2eds/bin/gnu/h-x86_64-mingw32/bin/../lib/gcc/nios2-elf/10.1.1/../../../../../H-x86_64-mingw32/nios2-elf/lib/mno-hw-mul\libc.a(lib_a-lseekr.o)
 .debug_info    0x000000000001d171      0xcc5 c:/intelfpga_lite/20.1/nios2eds/bin/gnu/h-x86_64-mingw32/bin/../lib/gcc/nios2-elf/10.1.1/../../../../../H-x86_64-mingw32/nios2-elf/lib/mno-hw-mul\libc.a(lib_a-mbtowc_r.o)
 .debug_info    0x000000000001de36      0x9bf c:/intelfpga_lite/20.1/nios2eds/bin/gnu/h-x86_64-mingw32/bin/../lib/gcc/nios2-elf/10.1.1/../../../../../H-x86_64-mingw32/nios2-elf/lib/mno-hw-mul\libc.a(lib_a-readr.o)
 .debug_info    0x000000000001e7f5       0xf2 c:/intelfpga_lite/20.1/nios2eds/bin/gnu/h-x86_64-mingw32/bin/../lib/gcc/nios2-elf/10.1.1/../../../../../H-x86_64-mingw32/nios2-elf/lib/mno-hw-mul\libc.a(lib_a-strcmp.o)
 .debug_info    0x000000000001e8e7      0x9dc c:/intelfpga_lite/20.1/nios2eds/bin/gnu/h-x86_64-mingw32/bin/../lib/gcc/nios2-elf/10.1.1/../../../../../H-x86_64-mingw32/nios2-elf/lib/mno-hw-mul\libc.a(lib_a-vfiprintfr_1.o)
 .debug_info    0x000000000001f2c3      0xd46 c:/intelfpga_lite/20.1/nios2eds/bin/gnu/h-x86_64-mingw32/bin/../lib/gcc/nios2-elf/10.1.1/../../../../../H-x86_64-mingw32/nios2-elf/lib/mno-hw-mul\libc.a(lib_a-wcrtomb.o)
 .debug_info    0x0000000000020009      0xc81 c:/intelfpga_lite/20.1/nios2eds/bin/gnu/h-x86_64-mingw32/bin/../lib/gcc/nios2-elf/10.1.1/../../../../../H-x86_64-mingw32/nios2-elf/lib/mno-hw-mul\libc.a(lib_a-wctomb_r.o)
 .debug_info    0x0000000000020c8a       0xcb c:/intelfpga_lite/20.1/nios2eds/bin/gnu/h-x86_64-mingw32/bin/../lib/gcc/nios2-elf/10.1.1/../../../../../H-x86_64-mingw32/nios2-elf/lib/mno-hw-mul\libc.a(lib_a-abort.o)
 .debug_info    0x0000000000020d55       0xec c:/intelfpga_lite/20.1/nios2eds/bin/gnu/h-x86_64-mingw32/bin/../lib/gcc/nios2-elf/10.1.1/../../../../../H-x86_64-mingw32/nios2-elf/lib/mno-hw-mul\libc.a(lib_a-ctype_.o)
 .debug_info    0x0000000000020e41      0xfd7 c:/intelfpga_lite/20.1/nios2eds/bin/gnu/h-x86_64-mingw32/bin/../lib/gcc/nios2-elf/10.1.1/../../../../../H-x86_64-mingw32/nios2-elf/lib/mno-hw-mul\libc.a(lib_a-signal.o)
 .debug_info    0x0000000000021e18      0x9dd c:/intelfpga_lite/20.1/nios2eds/bin/gnu/h-x86_64-mingw32/bin/../lib/gcc/nios2-elf/10.1.1/../../../../../H-x86_64-mingw32/nios2-elf/lib/mno-hw-mul\libc.a(lib_a-signalr.o)
 .debug_info    0x00000000000227f5      0x274 c:/intelfpga_lite/20.1/nios2eds/bin/gnu/h-x86_64-mingw32/bin/../lib/gcc/nios2-elf/10.1.1/mno-hw-mul\libgcc.a(_muldi3.o)
 .debug_info    0x0000000000022a69      0x993 c:/intelfpga_lite/20.1/nios2eds/bin/gnu/h-x86_64-mingw32/bin/../lib/gcc/nios2-elf/10.1.1/mno-hw-mul\libgcc.a(_udivdi3.o)
 .debug_info    0x00000000000233fc      0xa05 c:/intelfpga_lite/20.1/nios2eds/bin/gnu/h-x86_64-mingw32/bin/../lib/gcc/nios2-elf/10.1.1/mno-hw-mul\libgcc.a(_umoddi3.o)
 .debug_info    0x0000000000023e01      0x614 c:/intelfpga_lite/20.1/nios2eds/bin/gnu/h-x86_64-mingw32/bin/../lib/gcc/nios2-elf/10.1.1/mno-hw-mul\libgcc.a(adddf3.o)
 .debug_info    0x0000000000024415      0x8ec c:/intelfpga_lite/20.1/nios2eds/bin/gnu/h-x86_64-mingw32/bin/../lib/gcc/nios2-elf/10.1.1/mno-hw-mul\libgcc.a(divdf3.o)
 .debug_info    0x0000000000024d01      0x273 c:/intelfpga_lite/20.1/nios2eds/bin/gnu/h-x86_64-mingw32/bin/../lib/gcc/nios2-elf/10.1.1/mno-hw-mul\libgcc.a(eqdf2.o)
 .debug_info    0x0000000000024f74      0x274 c:/intelfpga_lite/20.1/nios2eds/bin/gnu/h-x86_64-mingw32/bin/../lib/gcc/nios2-elf/10.1.1/mno-hw-mul\libgcc.a(gedf2.o)
 .debug_info    0x00000000000251e8      0x274 c:/intelfpga_lite/20.1/nios2eds/bin/gnu/h-x86_64-mingw32/bin/../lib/gcc/nios2-elf/10.1.1/mno-hw-mul\libgcc.a(ledf2.o)
 .debug_info    0x000000000002545c      0x8e2 c:/intelfpga_lite/20.1/nios2eds/bin/gnu/h-x86_64-mingw32/bin/../lib/gcc/nios2-elf/10.1.1/mno-hw-mul\libgcc.a(muldf3.o)
 .debug_info    0x0000000000025d3e      0x614 c:/intelfpga_lite/20.1/nios2eds/bin/gnu/h-x86_64-mingw32/bin/../lib/gcc/nios2-elf/10.1.1/mno-hw-mul\libgcc.a(subdf3.o)
 .debug_info    0x0000000000026352      0x24b c:/intelfpga_lite/20.1/nios2eds/bin/gnu/h-x86_64-mingw32/bin/../lib/gcc/nios2-elf/10.1.1/mno-hw-mul\libgcc.a(unorddf2.o)
 .debug_info    0x000000000002659d      0x1f7 c:/intelfpga_lite/20.1/nios2eds/bin/gnu/h-x86_64-mingw32/bin/../lib/gcc/nios2-elf/10.1.1/mno-hw-mul\libgcc.a(fixdfsi.o)
 .debug_info    0x0000000000026794      0x2bf c:/intelfpga_lite/20.1/nios2eds/bin/gnu/h-x86_64-mingw32/bin/../lib/gcc/nios2-elf/10.1.1/mno-hw-mul\libgcc.a(floatsidf.o)
 .debug_info    0x0000000000026a53      0x2b2 c:/intelfpga_lite/20.1/nios2eds/bin/gnu/h-x86_64-mingw32/bin/../lib/gcc/nios2-elf/10.1.1/mno-hw-mul\libgcc.a(floatunsidf.o)
 .debug_info    0x0000000000026d05       0xc2 c:/intelfpga_lite/20.1/nios2eds/bin/gnu/h-x86_64-mingw32/bin/../lib/gcc/nios2-elf/10.1.1/mno-hw-mul\libgcc.a(_clz.o)
 .debug_info    0x0000000000026dc7      0x133 c:/intelfpga_lite/20.1/nios2eds/bin/gnu/h-x86_64-mingw32/bin/../lib/gcc/nios2-elf/10.1.1/mno-hw-mul\libgcc.a(_clzsi2.o)
 .debug_info    0x0000000000026efa      0x32c c:/fpga/DE1-SoC_v.5.1.3_HWrevF.revG_SystemCD/Demonstrations/FPGA/DE1_SoC_SDRAM_Nios_Test/software/sdram_nios_test_v2_bsp/\libhal_bsp.a(alt_close.o)
 .debug_info    0x0000000000027226       0x8c c:/fpga/DE1-SoC_v.5.1.3_HWrevF.revG_SystemCD/Demonstrations/FPGA/DE1_SoC_SDRAM_Nios_Test/software/sdram_nios_test_v2_bsp/\libhal_bsp.a(alt_dcache_flush_all.o)
 .debug_info    0x00000000000272b2      0x57d c:/fpga/DE1-SoC_v.5.1.3_HWrevF.revG_SystemCD/Demonstrations/FPGA/DE1_SoC_SDRAM_Nios_Test/software/sdram_nios_test_v2_bsp/\libhal_bsp.a(alt_dev.o)
 .debug_info    0x000000000002782f       0x9d c:/fpga/DE1-SoC_v.5.1.3_HWrevF.revG_SystemCD/Demonstrations/FPGA/DE1_SoC_SDRAM_Nios_Test/software/sdram_nios_test_v2_bsp/\libhal_bsp.a(alt_errno.o)
 .debug_info    0x00000000000278cc       0xe1 c:/fpga/DE1-SoC_v.5.1.3_HWrevF.revG_SystemCD/Demonstrations/FPGA/DE1_SoC_SDRAM_Nios_Test/software/sdram_nios_test_v2_bsp/\libhal_bsp.a(alt_exit.o)
 .debug_info    0x00000000000279ad      0x52a c:/fpga/DE1-SoC_v.5.1.3_HWrevF.revG_SystemCD/Demonstrations/FPGA/DE1_SoC_SDRAM_Nios_Test/software/sdram_nios_test_v2_bsp/\libhal_bsp.a(alt_fstat.o)
 .debug_info    0x0000000000027ed7       0x43 c:/fpga/DE1-SoC_v.5.1.3_HWrevF.revG_SystemCD/Demonstrations/FPGA/DE1_SoC_SDRAM_Nios_Test/software/sdram_nios_test_v2_bsp/\libhal_bsp.a(alt_getpid.o)
 .debug_info    0x0000000000027f1a      0x52d c:/fpga/DE1-SoC_v.5.1.3_HWrevF.revG_SystemCD/Demonstrations/FPGA/DE1_SoC_SDRAM_Nios_Test/software/sdram_nios_test_v2_bsp/\libhal_bsp.a(alt_isatty.o)
 .debug_info    0x0000000000028447      0x101 c:/fpga/DE1-SoC_v.5.1.3_HWrevF.revG_SystemCD/Demonstrations/FPGA/DE1_SoC_SDRAM_Nios_Test/software/sdram_nios_test_v2_bsp/\libhal_bsp.a(alt_kill.o)
 .debug_info    0x0000000000028548      0x14d c:/fpga/DE1-SoC_v.5.1.3_HWrevF.revG_SystemCD/Demonstrations/FPGA/DE1_SoC_SDRAM_Nios_Test/software/sdram_nios_test_v2_bsp/\libhal_bsp.a(alt_load.o)
 .debug_info    0x0000000000028695      0x36d c:/fpga/DE1-SoC_v.5.1.3_HWrevF.revG_SystemCD/Demonstrations/FPGA/DE1_SoC_SDRAM_Nios_Test/software/sdram_nios_test_v2_bsp/\libhal_bsp.a(alt_lseek.o)
 .debug_info    0x0000000000028a02       0xef c:/fpga/DE1-SoC_v.5.1.3_HWrevF.revG_SystemCD/Demonstrations/FPGA/DE1_SoC_SDRAM_Nios_Test/software/sdram_nios_test_v2_bsp/\libhal_bsp.a(alt_main.o)
 .debug_info    0x0000000000028af1      0x938 c:/fpga/DE1-SoC_v.5.1.3_HWrevF.revG_SystemCD/Demonstrations/FPGA/DE1_SoC_SDRAM_Nios_Test/software/sdram_nios_test_v2_bsp/\libhal_bsp.a(alt_malloc_lock.o)
 .debug_info    0x0000000000029429      0x555 c:/fpga/DE1-SoC_v.5.1.3_HWrevF.revG_SystemCD/Demonstrations/FPGA/DE1_SoC_SDRAM_Nios_Test/software/sdram_nios_test_v2_bsp/\libhal_bsp.a(alt_read.o)
 .debug_info    0x000000000002997e      0x2b9 c:/fpga/DE1-SoC_v.5.1.3_HWrevF.revG_SystemCD/Demonstrations/FPGA/DE1_SoC_SDRAM_Nios_Test/software/sdram_nios_test_v2_bsp/\libhal_bsp.a(alt_release_fd.o)
 .debug_info    0x0000000000029c37      0x19c c:/fpga/DE1-SoC_v.5.1.3_HWrevF.revG_SystemCD/Demonstrations/FPGA/DE1_SoC_SDRAM_Nios_Test/software/sdram_nios_test_v2_bsp/\libhal_bsp.a(alt_sbrk.o)
 .debug_info    0x0000000000029dd3      0x2bd c:/fpga/DE1-SoC_v.5.1.3_HWrevF.revG_SystemCD/Demonstrations/FPGA/DE1_SoC_SDRAM_Nios_Test/software/sdram_nios_test_v2_bsp/\libhal_bsp.a(alt_tick.o)
 .debug_info    0x000000000002a090       0xb7 c:/fpga/DE1-SoC_v.5.1.3_HWrevF.revG_SystemCD/Demonstrations/FPGA/DE1_SoC_SDRAM_Nios_Test/software/sdram_nios_test_v2_bsp/\libhal_bsp.a(alt_usleep.o)
 .debug_info    0x000000000002a147      0x55c c:/fpga/DE1-SoC_v.5.1.3_HWrevF.revG_SystemCD/Demonstrations/FPGA/DE1_SoC_SDRAM_Nios_Test/software/sdram_nios_test_v2_bsp/\libhal_bsp.a(alt_write.o)
 .debug_info    0x000000000002a6a3      0x4d1 c:/fpga/DE1-SoC_v.5.1.3_HWrevF.revG_SystemCD/Demonstrations/FPGA/DE1_SoC_SDRAM_Nios_Test/software/sdram_nios_test_v2_bsp/\libhal_bsp.a(alt_sys_init.o)
 .debug_info    0x000000000002ab74      0x53d c:/fpga/DE1-SoC_v.5.1.3_HWrevF.revG_SystemCD/Demonstrations/FPGA/DE1_SoC_SDRAM_Nios_Test/software/sdram_nios_test_v2_bsp/\libhal_bsp.a(altera_avalon_jtag_uart_fd.o)
 .debug_info    0x000000000002b0b1      0x3d0 c:/fpga/DE1-SoC_v.5.1.3_HWrevF.revG_SystemCD/Demonstrations/FPGA/DE1_SoC_SDRAM_Nios_Test/software/sdram_nios_test_v2_bsp/\libhal_bsp.a(altera_avalon_jtag_uart_init.o)
 .debug_info    0x000000000002b481      0x273 c:/fpga/DE1-SoC_v.5.1.3_HWrevF.revG_SystemCD/Demonstrations/FPGA/DE1_SoC_SDRAM_Nios_Test/software/sdram_nios_test_v2_bsp/\libhal_bsp.a(altera_avalon_jtag_uart_ioctl.o)
 .debug_info    0x000000000002b6f4      0x336 c:/fpga/DE1-SoC_v.5.1.3_HWrevF.revG_SystemCD/Demonstrations/FPGA/DE1_SoC_SDRAM_Nios_Test/software/sdram_nios_test_v2_bsp/\libhal_bsp.a(altera_avalon_jtag_uart_read.o)
 .debug_info    0x000000000002ba2a      0x331 c:/fpga/DE1-SoC_v.5.1.3_HWrevF.revG_SystemCD/Demonstrations/FPGA/DE1_SoC_SDRAM_Nios_Test/software/sdram_nios_test_v2_bsp/\libhal_bsp.a(altera_avalon_jtag_uart_write.o)
 .debug_info    0x000000000002bd5b      0x1d5 c:/fpga/DE1-SoC_v.5.1.3_HWrevF.revG_SystemCD/Demonstrations/FPGA/DE1_SoC_SDRAM_Nios_Test/software/sdram_nios_test_v2_bsp/\libhal_bsp.a(altera_avalon_timer_sc.o)
 .debug_info    0x000000000002bf30      0x2dd c:/fpga/DE1-SoC_v.5.1.3_HWrevF.revG_SystemCD/Demonstrations/FPGA/DE1_SoC_SDRAM_Nios_Test/software/sdram_nios_test_v2_bsp/\libhal_bsp.a(alt_alarm_start.o)
 .debug_info    0x000000000002c20d       0xd6 c:/fpga/DE1-SoC_v.5.1.3_HWrevF.revG_SystemCD/Demonstrations/FPGA/DE1_SoC_SDRAM_Nios_Test/software/sdram_nios_test_v2_bsp/\libhal_bsp.a(alt_busy_sleep.o)
 .debug_info    0x000000000002c2e3      0x1b0 c:/fpga/DE1-SoC_v.5.1.3_HWrevF.revG_SystemCD/Demonstrations/FPGA/DE1_SoC_SDRAM_Nios_Test/software/sdram_nios_test_v2_bsp/\libhal_bsp.a(alt_dev_llist_insert.o)
 .debug_info    0x000000000002c493       0x88 c:/fpga/DE1-SoC_v.5.1.3_HWrevF.revG_SystemCD/Demonstrations/FPGA/DE1_SoC_SDRAM_Nios_Test/software/sdram_nios_test_v2_bsp/\libhal_bsp.a(alt_do_ctors.o)
 .debug_info    0x000000000002c51b       0x88 c:/fpga/DE1-SoC_v.5.1.3_HWrevF.revG_SystemCD/Demonstrations/FPGA/DE1_SoC_SDRAM_Nios_Test/software/sdram_nios_test_v2_bsp/\libhal_bsp.a(alt_do_dtors.o)
 .debug_info    0x000000000002c5a3       0x8c c:/fpga/DE1-SoC_v.5.1.3_HWrevF.revG_SystemCD/Demonstrations/FPGA/DE1_SoC_SDRAM_Nios_Test/software/sdram_nios_test_v2_bsp/\libhal_bsp.a(alt_icache_flush_all.o)
 .debug_info    0x000000000002c62f      0x32c c:/fpga/DE1-SoC_v.5.1.3_HWrevF.revG_SystemCD/Demonstrations/FPGA/DE1_SoC_SDRAM_Nios_Test/software/sdram_nios_test_v2_bsp/\libhal_bsp.a(alt_iic.o)
 .debug_info    0x000000000002c95b      0x1f0 c:/fpga/DE1-SoC_v.5.1.3_HWrevF.revG_SystemCD/Demonstrations/FPGA/DE1_SoC_SDRAM_Nios_Test/software/sdram_nios_test_v2_bsp/\libhal_bsp.a(alt_iic_isr_register.o)
 .debug_info    0x000000000002cb4b      0x546 c:/fpga/DE1-SoC_v.5.1.3_HWrevF.revG_SystemCD/Demonstrations/FPGA/DE1_SoC_SDRAM_Nios_Test/software/sdram_nios_test_v2_bsp/\libhal_bsp.a(alt_io_redirect.o)
 .debug_info    0x000000000002d091       0x22 c:/fpga/DE1-SoC_v.5.1.3_HWrevF.revG_SystemCD/Demonstrations/FPGA/DE1_SoC_SDRAM_Nios_Test/software/sdram_nios_test_v2_bsp/\libhal_bsp.a(alt_irq_entry.o)
 .debug_info    0x000000000002d0b3      0x175 c:/fpga/DE1-SoC_v.5.1.3_HWrevF.revG_SystemCD/Demonstrations/FPGA/DE1_SoC_SDRAM_Nios_Test/software/sdram_nios_test_v2_bsp/\libhal_bsp.a(alt_irq_handler.o)
 .debug_info    0x000000000002d228       0x8b c:/fpga/DE1-SoC_v.5.1.3_HWrevF.revG_SystemCD/Demonstrations/FPGA/DE1_SoC_SDRAM_Nios_Test/software/sdram_nios_test_v2_bsp/\libhal_bsp.a(alt_irq_vars.o)
 .debug_info    0x000000000002d2b3      0x3dd c:/fpga/DE1-SoC_v.5.1.3_HWrevF.revG_SystemCD/Demonstrations/FPGA/DE1_SoC_SDRAM_Nios_Test/software/sdram_nios_test_v2_bsp/\libhal_bsp.a(alt_open.o)
 .debug_info    0x000000000002d690       0x8c c:/fpga/DE1-SoC_v.5.1.3_HWrevF.revG_SystemCD/Demonstrations/FPGA/DE1_SoC_SDRAM_Nios_Test/software/sdram_nios_test_v2_bsp/\libhal_bsp.a(altera_nios2_gen2_irq.o)
 .debug_info    0x000000000002d71c       0x22 c:/fpga/DE1-SoC_v.5.1.3_HWrevF.revG_SystemCD/Demonstrations/FPGA/DE1_SoC_SDRAM_Nios_Test/software/sdram_nios_test_v2_bsp/\libhal_bsp.a(alt_exception_entry.o)
 .debug_info    0x000000000002d73e      0x2ee c:/fpga/DE1-SoC_v.5.1.3_HWrevF.revG_SystemCD/Demonstrations/FPGA/DE1_SoC_SDRAM_Nios_Test/software/sdram_nios_test_v2_bsp/\libhal_bsp.a(alt_find_dev.o)
 .debug_info    0x000000000002da2c      0x2eb c:/fpga/DE1-SoC_v.5.1.3_HWrevF.revG_SystemCD/Demonstrations/FPGA/DE1_SoC_SDRAM_Nios_Test/software/sdram_nios_test_v2_bsp/\libhal_bsp.a(alt_find_file.o)
 .debug_info    0x000000000002dd17      0x31c c:/fpga/DE1-SoC_v.5.1.3_HWrevF.revG_SystemCD/Demonstrations/FPGA/DE1_SoC_SDRAM_Nios_Test/software/sdram_nios_test_v2_bsp/\libhal_bsp.a(alt_get_fd.o)
 .debug_info    0x000000000002e033      0x1f1 c:/fpga/DE1-SoC_v.5.1.3_HWrevF.revG_SystemCD/Demonstrations/FPGA/DE1_SoC_SDRAM_Nios_Test/software/sdram_nios_test_v2_bsp/\libhal_bsp.a(alt_instruction_exception_entry.o)
 .debug_info    0x000000000002e224      0x100 c:/intelfpga_lite/20.1/nios2eds/bin/gnu/h-x86_64-mingw32/bin/../lib/gcc/nios2-elf/10.1.1/../../../../../H-x86_64-mingw32/nios2-elf/lib/mno-hw-mul\libc.a(lib_a-atexit.o)
 .debug_info    0x000000000002e324      0x970 c:/intelfpga_lite/20.1/nios2eds/bin/gnu/h-x86_64-mingw32/bin/../lib/gcc/nios2-elf/10.1.1/../../../../../H-x86_64-mingw32/nios2-elf/lib/mno-hw-mul\libc.a(lib_a-exit.o)
 .debug_info    0x000000000002ec94      0x138 c:/intelfpga_lite/20.1/nios2eds/bin/gnu/h-x86_64-mingw32/bin/../lib/gcc/nios2-elf/10.1.1/../../../../../H-x86_64-mingw32/nios2-elf/lib/mno-hw-mul\libc.a(lib_a-memcmp.o)
 .debug_info    0x000000000002edcc      0x9b1 c:/intelfpga_lite/20.1/nios2eds/bin/gnu/h-x86_64-mingw32/bin/../lib/gcc/nios2-elf/10.1.1/../../../../../H-x86_64-mingw32/nios2-elf/lib/mno-hw-mul\libc.a(lib_a-__atexit.o)
 .debug_info    0x000000000002f77d      0x9f9 c:/intelfpga_lite/20.1/nios2eds/bin/gnu/h-x86_64-mingw32/bin/../lib/gcc/nios2-elf/10.1.1/../../../../../H-x86_64-mingw32/nios2-elf/lib/mno-hw-mul\libc.a(lib_a-__call_atexit.o)

.debug_abbrev   0x0000000000000000     0xbedc
 *(.debug_abbrev)
 .debug_abbrev  0x0000000000000000       0x12 c:/fpga/DE1-SoC_v.5.1.3_HWrevF.revG_SystemCD/Demonstrations/FPGA/DE1_SoC_SDRAM_Nios_Test/software/sdram_nios_test_v2_bsp//obj/HAL/src/crt0.o
 .debug_abbrev  0x0000000000000012       0x8d obj/default/main.o
 .debug_abbrev  0x000000000000009f       0xf3 obj/default/mem_verify.o
 .debug_abbrev  0x0000000000000192      0x103 c:/intelfpga_lite/20.1/nios2eds/bin/gnu/h-x86_64-mingw32/bin/../lib/gcc/nios2-elf/10.1.1/mno-hw-mul\libgcc.a(lib2-divmod.o)
 .debug_abbrev  0x0000000000000295       0x7d c:/intelfpga_lite/20.1/nios2eds/bin/gnu/h-x86_64-mingw32/bin/../lib/gcc/nios2-elf/10.1.1/mno-hw-mul\libgcc.a(lib2-mul.o)
 .debug_abbrev  0x0000000000000312       0xb6 c:/intelfpga_lite/20.1/nios2eds/bin/gnu/h-x86_64-mingw32/bin/../lib/gcc/nios2-elf/10.1.1/../../../../../H-x86_64-mingw32/nios2-elf/lib/mno-hw-mul\libc.a(lib_a-memcpy.o)
 .debug_abbrev  0x00000000000003c8      0x265 c:/intelfpga_lite/20.1/nios2eds/bin/gnu/h-x86_64-mingw32/bin/../lib/gcc/nios2-elf/10.1.1/../../../../../H-x86_64-mingw32/nios2-elf/lib/mno-hw-mul\libc.a(lib_a-printf.o)
 .debug_abbrev  0x000000000000062d      0x244 c:/intelfpga_lite/20.1/nios2eds/bin/gnu/h-x86_64-mingw32/bin/../lib/gcc/nios2-elf/10.1.1/../../../../../H-x86_64-mingw32/nios2-elf/lib/mno-hw-mul\libc.a(lib_a-putchar.o)
 .debug_abbrev  0x0000000000000871      0x2a0 c:/intelfpga_lite/20.1/nios2eds/bin/gnu/h-x86_64-mingw32/bin/../lib/gcc/nios2-elf/10.1.1/../../../../../H-x86_64-mingw32/nios2-elf/lib/mno-hw-mul\libc.a(lib_a-puts.o)
 .debug_abbrev  0x0000000000000b11      0x239 c:/intelfpga_lite/20.1/nios2eds/bin/gnu/h-x86_64-mingw32/bin/../lib/gcc/nios2-elf/10.1.1/../../../../../H-x86_64-mingw32/nios2-elf/lib/mno-hw-mul\libc.a(lib_a-rand.o)
 .debug_abbrev  0x0000000000000d4a       0x8f c:/intelfpga_lite/20.1/nios2eds/bin/gnu/h-x86_64-mingw32/bin/../lib/gcc/nios2-elf/10.1.1/../../../../../H-x86_64-mingw32/nios2-elf/lib/mno-hw-mul\libc.a(lib_a-strlen.o)
 .debug_abbrev  0x0000000000000dd9      0x42f c:/intelfpga_lite/20.1/nios2eds/bin/gnu/h-x86_64-mingw32/bin/../lib/gcc/nios2-elf/10.1.1/../../../../../H-x86_64-mingw32/nios2-elf/lib/mno-hw-mul\libc.a(lib_a-vfprintf.o)
 .debug_abbrev  0x0000000000001208      0x257 c:/intelfpga_lite/20.1/nios2eds/bin/gnu/h-x86_64-mingw32/bin/../lib/gcc/nios2-elf/10.1.1/../../../../../H-x86_64-mingw32/nios2-elf/lib/mno-hw-mul\libc.a(lib_a-wsetup.o)
 .debug_abbrev  0x000000000000145f      0x345 c:/intelfpga_lite/20.1/nios2eds/bin/gnu/h-x86_64-mingw32/bin/../lib/gcc/nios2-elf/10.1.1/../../../../../H-x86_64-mingw32/nios2-elf/lib/mno-hw-mul\libc.a(lib_a-dtoa.o)
 .debug_abbrev  0x00000000000017a4      0x344 c:/intelfpga_lite/20.1/nios2eds/bin/gnu/h-x86_64-mingw32/bin/../lib/gcc/nios2-elf/10.1.1/../../../../../H-x86_64-mingw32/nios2-elf/lib/mno-hw-mul\libc.a(lib_a-fflush.o)
 .debug_abbrev  0x0000000000001ae8      0x464 c:/intelfpga_lite/20.1/nios2eds/bin/gnu/h-x86_64-mingw32/bin/../lib/gcc/nios2-elf/10.1.1/../../../../../H-x86_64-mingw32/nios2-elf/lib/mno-hw-mul\libc.a(lib_a-findfp.o)
 .debug_abbrev  0x0000000000001f4c      0x2b1 c:/intelfpga_lite/20.1/nios2eds/bin/gnu/h-x86_64-mingw32/bin/../lib/gcc/nios2-elf/10.1.1/../../../../../H-x86_64-mingw32/nios2-elf/lib/mno-hw-mul\libc.a(lib_a-freer.o)
 .debug_abbrev  0x00000000000021fd      0x295 c:/intelfpga_lite/20.1/nios2eds/bin/gnu/h-x86_64-mingw32/bin/../lib/gcc/nios2-elf/10.1.1/../../../../../H-x86_64-mingw32/nios2-elf/lib/mno-hw-mul\libc.a(lib_a-fvwrite.o)
 .debug_abbrev  0x0000000000002492      0x20f c:/intelfpga_lite/20.1/nios2eds/bin/gnu/h-x86_64-mingw32/bin/../lib/gcc/nios2-elf/10.1.1/../../../../../H-x86_64-mingw32/nios2-elf/lib/mno-hw-mul\libc.a(lib_a-fwalk.o)
 .debug_abbrev  0x00000000000026a1      0x1c9 c:/intelfpga_lite/20.1/nios2eds/bin/gnu/h-x86_64-mingw32/bin/../lib/gcc/nios2-elf/10.1.1/../../../../../H-x86_64-mingw32/nios2-elf/lib/mno-hw-mul\libc.a(lib_a-impure.o)
 .debug_abbrev  0x000000000000286a      0x275 c:/intelfpga_lite/20.1/nios2eds/bin/gnu/h-x86_64-mingw32/bin/../lib/gcc/nios2-elf/10.1.1/../../../../../H-x86_64-mingw32/nios2-elf/lib/mno-hw-mul\libc.a(lib_a-localeconv.o)
 .debug_abbrev  0x0000000000002adf      0x308 c:/intelfpga_lite/20.1/nios2eds/bin/gnu/h-x86_64-mingw32/bin/../lib/gcc/nios2-elf/10.1.1/../../../../../H-x86_64-mingw32/nios2-elf/lib/mno-hw-mul\libc.a(lib_a-makebuf.o)
 .debug_abbrev  0x0000000000002de7      0x2f6 c:/intelfpga_lite/20.1/nios2eds/bin/gnu/h-x86_64-mingw32/bin/../lib/gcc/nios2-elf/10.1.1/../../../../../H-x86_64-mingw32/nios2-elf/lib/mno-hw-mul\libc.a(lib_a-mallocr.o)
 .debug_abbrev  0x00000000000030dd       0xc3 c:/intelfpga_lite/20.1/nios2eds/bin/gnu/h-x86_64-mingw32/bin/../lib/gcc/nios2-elf/10.1.1/../../../../../H-x86_64-mingw32/nios2-elf/lib/mno-hw-mul\libc.a(lib_a-memchr.o)
 .debug_abbrev  0x00000000000031a0       0xaf c:/intelfpga_lite/20.1/nios2eds/bin/gnu/h-x86_64-mingw32/bin/../lib/gcc/nios2-elf/10.1.1/../../../../../H-x86_64-mingw32/nios2-elf/lib/mno-hw-mul\libc.a(lib_a-memmove.o)
 .debug_abbrev  0x000000000000324f       0xb4 c:/intelfpga_lite/20.1/nios2eds/bin/gnu/h-x86_64-mingw32/bin/../lib/gcc/nios2-elf/10.1.1/../../../../../H-x86_64-mingw32/nios2-elf/lib/mno-hw-mul\libc.a(lib_a-memset.o)
 .debug_abbrev  0x0000000000003303      0x4f8 c:/intelfpga_lite/20.1/nios2eds/bin/gnu/h-x86_64-mingw32/bin/../lib/gcc/nios2-elf/10.1.1/../../../../../H-x86_64-mingw32/nios2-elf/lib/mno-hw-mul\libc.a(lib_a-mprec.o)
 .debug_abbrev  0x00000000000037fb      0x284 c:/intelfpga_lite/20.1/nios2eds/bin/gnu/h-x86_64-mingw32/bin/../lib/gcc/nios2-elf/10.1.1/../../../../../H-x86_64-mingw32/nios2-elf/lib/mno-hw-mul\libc.a(lib_a-putc.o)
 .debug_abbrev  0x0000000000003a7f      0x289 c:/intelfpga_lite/20.1/nios2eds/bin/gnu/h-x86_64-mingw32/bin/../lib/gcc/nios2-elf/10.1.1/../../../../../H-x86_64-mingw32/nios2-elf/lib/mno-hw-mul\libc.a(lib_a-reallocr.o)
 .debug_abbrev  0x0000000000003d08      0x24e c:/intelfpga_lite/20.1/nios2eds/bin/gnu/h-x86_64-mingw32/bin/../lib/gcc/nios2-elf/10.1.1/../../../../../H-x86_64-mingw32/nios2-elf/lib/mno-hw-mul\libc.a(lib_a-sbrkr.o)
 .debug_abbrev  0x0000000000003f56      0x273 c:/intelfpga_lite/20.1/nios2eds/bin/gnu/h-x86_64-mingw32/bin/../lib/gcc/nios2-elf/10.1.1/../../../../../H-x86_64-mingw32/nios2-elf/lib/mno-hw-mul\libc.a(lib_a-stdio.o)
 .debug_abbrev  0x00000000000041c9      0x441 c:/intelfpga_lite/20.1/nios2eds/bin/gnu/h-x86_64-mingw32/bin/../lib/gcc/nios2-elf/10.1.1/../../../../../H-x86_64-mingw32/nios2-elf/lib/mno-hw-mul\libc.a(lib_a-vfiprintf.o)
 .debug_abbrev  0x000000000000460a      0x297 c:/intelfpga_lite/20.1/nios2eds/bin/gnu/h-x86_64-mingw32/bin/../lib/gcc/nios2-elf/10.1.1/../../../../../H-x86_64-mingw32/nios2-elf/lib/mno-hw-mul\libc.a(lib_a-wbuf.o)
 .debug_abbrev  0x00000000000048a1      0x228 c:/intelfpga_lite/20.1/nios2eds/bin/gnu/h-x86_64-mingw32/bin/../lib/gcc/nios2-elf/10.1.1/../../../../../H-x86_64-mingw32/nios2-elf/lib/mno-hw-mul\libc.a(lib_a-writer.o)
 .debug_abbrev  0x0000000000004ac9      0x223 c:/intelfpga_lite/20.1/nios2eds/bin/gnu/h-x86_64-mingw32/bin/../lib/gcc/nios2-elf/10.1.1/../../../../../H-x86_64-mingw32/nios2-elf/lib/mno-hw-mul\libc.a(closer.o)
 .debug_abbrev  0x0000000000004cec      0x23b c:/intelfpga_lite/20.1/nios2eds/bin/gnu/h-x86_64-mingw32/bin/../lib/gcc/nios2-elf/10.1.1/../../../../../H-x86_64-mingw32/nios2-elf/lib/mno-hw-mul\libc.a(lib_a-assert.o)
 .debug_abbrev  0x0000000000004f27      0x26a c:/intelfpga_lite/20.1/nios2eds/bin/gnu/h-x86_64-mingw32/bin/../lib/gcc/nios2-elf/10.1.1/../../../../../H-x86_64-mingw32/nios2-elf/lib/mno-hw-mul\libc.a(lib_a-callocr.o)
 .debug_abbrev  0x0000000000005191      0x317 c:/intelfpga_lite/20.1/nios2eds/bin/gnu/h-x86_64-mingw32/bin/../lib/gcc/nios2-elf/10.1.1/../../../../../H-x86_64-mingw32/nios2-elf/lib/mno-hw-mul\libc.a(lib_a-fclose.o)
 .debug_abbrev  0x00000000000054a8      0x231 c:/intelfpga_lite/20.1/nios2eds/bin/gnu/h-x86_64-mingw32/bin/../lib/gcc/nios2-elf/10.1.1/../../../../../H-x86_64-mingw32/nios2-elf/lib/mno-hw-mul\libc.a(lib_a-fiprintf.o)
 .debug_abbrev  0x00000000000056d9      0x2ff c:/intelfpga_lite/20.1/nios2eds/bin/gnu/h-x86_64-mingw32/bin/../lib/gcc/nios2-elf/10.1.1/../../../../../H-x86_64-mingw32/nios2-elf/lib/mno-hw-mul\libc.a(lib_a-fputwc.o)
 .debug_abbrev  0x00000000000059d8      0x237 c:/intelfpga_lite/20.1/nios2eds/bin/gnu/h-x86_64-mingw32/bin/../lib/gcc/nios2-elf/10.1.1/../../../../../H-x86_64-mingw32/nios2-elf/lib/mno-hw-mul\libc.a(lib_a-fstatr.o)
 .debug_abbrev  0x0000000000005c0f       0x39 c:/intelfpga_lite/20.1/nios2eds/bin/gnu/h-x86_64-mingw32/bin/../lib/gcc/nios2-elf/10.1.1/../../../../../H-x86_64-mingw32/nios2-elf/lib/mno-hw-mul\libc.a(lib_a-int_errno.o)
 .debug_abbrev  0x0000000000005c48      0x223 c:/intelfpga_lite/20.1/nios2eds/bin/gnu/h-x86_64-mingw32/bin/../lib/gcc/nios2-elf/10.1.1/../../../../../H-x86_64-mingw32/nios2-elf/lib/mno-hw-mul\libc.a(lib_a-isattyr.o)
 .debug_abbrev  0x0000000000005e6b      0x2f7 c:/intelfpga_lite/20.1/nios2eds/bin/gnu/h-x86_64-mingw32/bin/../lib/gcc/nios2-elf/10.1.1/../../../../../H-x86_64-mingw32/nios2-elf/lib/mno-hw-mul\libc.a(lib_a-locale.o)
 .debug_abbrev  0x0000000000006162      0x237 c:/intelfpga_lite/20.1/nios2eds/bin/gnu/h-x86_64-mingw32/bin/../lib/gcc/nios2-elf/10.1.1/../../../../../H-x86_64-mingw32/nios2-elf/lib/mno-hw-mul\libc.a(lib_a-lseekr.o)
 .debug_abbrev  0x0000000000006399      0x27a c:/intelfpga_lite/20.1/nios2eds/bin/gnu/h-x86_64-mingw32/bin/../lib/gcc/nios2-elf/10.1.1/../../../../../H-x86_64-mingw32/nios2-elf/lib/mno-hw-mul\libc.a(lib_a-mbtowc_r.o)
 .debug_abbrev  0x0000000000006613      0x223 c:/intelfpga_lite/20.1/nios2eds/bin/gnu/h-x86_64-mingw32/bin/../lib/gcc/nios2-elf/10.1.1/../../../../../H-x86_64-mingw32/nios2-elf/lib/mno-hw-mul\libc.a(lib_a-readr.o)
 .debug_abbrev  0x0000000000006836       0x80 c:/intelfpga_lite/20.1/nios2eds/bin/gnu/h-x86_64-mingw32/bin/../lib/gcc/nios2-elf/10.1.1/../../../../../H-x86_64-mingw32/nios2-elf/lib/mno-hw-mul\libc.a(lib_a-strcmp.o)
 .debug_abbrev  0x00000000000068b6      0x245 c:/intelfpga_lite/20.1/nios2eds/bin/gnu/h-x86_64-mingw32/bin/../lib/gcc/nios2-elf/10.1.1/../../../../../H-x86_64-mingw32/nios2-elf/lib/mno-hw-mul\libc.a(lib_a-vfiprintfr_1.o)
 .debug_abbrev  0x0000000000006afb      0x25f c:/intelfpga_lite/20.1/nios2eds/bin/gnu/h-x86_64-mingw32/bin/../lib/gcc/nios2-elf/10.1.1/../../../../../H-x86_64-mingw32/nios2-elf/lib/mno-hw-mul\libc.a(lib_a-wcrtomb.o)
 .debug_abbrev  0x0000000000006d5a      0x262 c:/intelfpga_lite/20.1/nios2eds/bin/gnu/h-x86_64-mingw32/bin/../lib/gcc/nios2-elf/10.1.1/../../../../../H-x86_64-mingw32/nios2-elf/lib/mno-hw-mul\libc.a(lib_a-wctomb_r.o)
 .debug_abbrev  0x0000000000006fbc       0x80 c:/intelfpga_lite/20.1/nios2eds/bin/gnu/h-x86_64-mingw32/bin/../lib/gcc/nios2-elf/10.1.1/../../../../../H-x86_64-mingw32/nios2-elf/lib/mno-hw-mul\libc.a(lib_a-abort.o)
 .debug_abbrev  0x000000000000703c       0x73 c:/intelfpga_lite/20.1/nios2eds/bin/gnu/h-x86_64-mingw32/bin/../lib/gcc/nios2-elf/10.1.1/../../../../../H-x86_64-mingw32/nios2-elf/lib/mno-hw-mul\libc.a(lib_a-ctype_.o)
 .debug_abbrev  0x00000000000070af      0x343 c:/intelfpga_lite/20.1/nios2eds/bin/gnu/h-x86_64-mingw32/bin/../lib/gcc/nios2-elf/10.1.1/../../../../../H-x86_64-mingw32/nios2-elf/lib/mno-hw-mul\libc.a(lib_a-signal.o)
 .debug_abbrev  0x00000000000073f2      0x240 c:/intelfpga_lite/20.1/nios2eds/bin/gnu/h-x86_64-mingw32/bin/../lib/gcc/nios2-elf/10.1.1/../../../../../H-x86_64-mingw32/nios2-elf/lib/mno-hw-mul\libc.a(lib_a-signalr.o)
 .debug_abbrev  0x0000000000007632      0x11d c:/intelfpga_lite/20.1/nios2eds/bin/gnu/h-x86_64-mingw32/bin/../lib/gcc/nios2-elf/10.1.1/mno-hw-mul\libgcc.a(_muldi3.o)
 .debug_abbrev  0x000000000000774f      0x1b4 c:/intelfpga_lite/20.1/nios2eds/bin/gnu/h-x86_64-mingw32/bin/../lib/gcc/nios2-elf/10.1.1/mno-hw-mul\libgcc.a(_udivdi3.o)
 .debug_abbrev  0x0000000000007903      0x1e0 c:/intelfpga_lite/20.1/nios2eds/bin/gnu/h-x86_64-mingw32/bin/../lib/gcc/nios2-elf/10.1.1/mno-hw-mul\libgcc.a(_umoddi3.o)
 .debug_abbrev  0x0000000000007ae3      0x16b c:/intelfpga_lite/20.1/nios2eds/bin/gnu/h-x86_64-mingw32/bin/../lib/gcc/nios2-elf/10.1.1/mno-hw-mul\libgcc.a(adddf3.o)
 .debug_abbrev  0x0000000000007c4e      0x16b c:/intelfpga_lite/20.1/nios2eds/bin/gnu/h-x86_64-mingw32/bin/../lib/gcc/nios2-elf/10.1.1/mno-hw-mul\libgcc.a(divdf3.o)
 .debug_abbrev  0x0000000000007db9      0x12f c:/intelfpga_lite/20.1/nios2eds/bin/gnu/h-x86_64-mingw32/bin/../lib/gcc/nios2-elf/10.1.1/mno-hw-mul\libgcc.a(eqdf2.o)
 .debug_abbrev  0x0000000000007ee8      0x153 c:/intelfpga_lite/20.1/nios2eds/bin/gnu/h-x86_64-mingw32/bin/../lib/gcc/nios2-elf/10.1.1/mno-hw-mul\libgcc.a(gedf2.o)
 .debug_abbrev  0x000000000000803b      0x153 c:/intelfpga_lite/20.1/nios2eds/bin/gnu/h-x86_64-mingw32/bin/../lib/gcc/nios2-elf/10.1.1/mno-hw-mul\libgcc.a(ledf2.o)
 .debug_abbrev  0x000000000000818e      0x17d c:/intelfpga_lite/20.1/nios2eds/bin/gnu/h-x86_64-mingw32/bin/../lib/gcc/nios2-elf/10.1.1/mno-hw-mul\libgcc.a(muldf3.o)
 .debug_abbrev  0x000000000000830b      0x16b c:/intelfpga_lite/20.1/nios2eds/bin/gnu/h-x86_64-mingw32/bin/../lib/gcc/nios2-elf/10.1.1/mno-hw-mul\libgcc.a(subdf3.o)
 .debug_abbrev  0x0000000000008476      0x12f c:/intelfpga_lite/20.1/nios2eds/bin/gnu/h-x86_64-mingw32/bin/../lib/gcc/nios2-elf/10.1.1/mno-hw-mul\libgcc.a(unorddf2.o)
 .debug_abbrev  0x00000000000085a5      0x145 c:/intelfpga_lite/20.1/nios2eds/bin/gnu/h-x86_64-mingw32/bin/../lib/gcc/nios2-elf/10.1.1/mno-hw-mul\libgcc.a(fixdfsi.o)
 .debug_abbrev  0x00000000000086ea      0x16d c:/intelfpga_lite/20.1/nios2eds/bin/gnu/h-x86_64-mingw32/bin/../lib/gcc/nios2-elf/10.1.1/mno-hw-mul\libgcc.a(floatsidf.o)
 .debug_abbrev  0x0000000000008857      0x16d c:/intelfpga_lite/20.1/nios2eds/bin/gnu/h-x86_64-mingw32/bin/../lib/gcc/nios2-elf/10.1.1/mno-hw-mul\libgcc.a(floatunsidf.o)
 .debug_abbrev  0x00000000000089c4       0x70 c:/intelfpga_lite/20.1/nios2eds/bin/gnu/h-x86_64-mingw32/bin/../lib/gcc/nios2-elf/10.1.1/mno-hw-mul\libgcc.a(_clz.o)
 .debug_abbrev  0x0000000000008a34       0xbf c:/intelfpga_lite/20.1/nios2eds/bin/gnu/h-x86_64-mingw32/bin/../lib/gcc/nios2-elf/10.1.1/mno-hw-mul\libgcc.a(_clzsi2.o)
 .debug_abbrev  0x0000000000008af3      0x133 c:/fpga/DE1-SoC_v.5.1.3_HWrevF.revG_SystemCD/Demonstrations/FPGA/DE1_SoC_SDRAM_Nios_Test/software/sdram_nios_test_v2_bsp/\libhal_bsp.a(alt_close.o)
 .debug_abbrev  0x0000000000008c26       0x44 c:/fpga/DE1-SoC_v.5.1.3_HWrevF.revG_SystemCD/Demonstrations/FPGA/DE1_SoC_SDRAM_Nios_Test/software/sdram_nios_test_v2_bsp/\libhal_bsp.a(alt_dcache_flush_all.o)
 .debug_abbrev  0x0000000000008c6a      0x117 c:/fpga/DE1-SoC_v.5.1.3_HWrevF.revG_SystemCD/Demonstrations/FPGA/DE1_SoC_SDRAM_Nios_Test/software/sdram_nios_test_v2_bsp/\libhal_bsp.a(alt_dev.o)
 .debug_abbrev  0x0000000000008d81       0x5a c:/fpga/DE1-SoC_v.5.1.3_HWrevF.revG_SystemCD/Demonstrations/FPGA/DE1_SoC_SDRAM_Nios_Test/software/sdram_nios_test_v2_bsp/\libhal_bsp.a(alt_errno.o)
 .debug_abbrev  0x0000000000008ddb       0xac c:/fpga/DE1-SoC_v.5.1.3_HWrevF.revG_SystemCD/Demonstrations/FPGA/DE1_SoC_SDRAM_Nios_Test/software/sdram_nios_test_v2_bsp/\libhal_bsp.a(alt_exit.o)
 .debug_abbrev  0x0000000000008e87      0x133 c:/fpga/DE1-SoC_v.5.1.3_HWrevF.revG_SystemCD/Demonstrations/FPGA/DE1_SoC_SDRAM_Nios_Test/software/sdram_nios_test_v2_bsp/\libhal_bsp.a(alt_fstat.o)
 .debug_abbrev  0x0000000000008fba       0x3b c:/fpga/DE1-SoC_v.5.1.3_HWrevF.revG_SystemCD/Demonstrations/FPGA/DE1_SoC_SDRAM_Nios_Test/software/sdram_nios_test_v2_bsp/\libhal_bsp.a(alt_getpid.o)
 .debug_abbrev  0x0000000000008ff5      0x133 c:/fpga/DE1-SoC_v.5.1.3_HWrevF.revG_SystemCD/Demonstrations/FPGA/DE1_SoC_SDRAM_Nios_Test/software/sdram_nios_test_v2_bsp/\libhal_bsp.a(alt_isatty.o)
 .debug_abbrev  0x0000000000009128       0xa9 c:/fpga/DE1-SoC_v.5.1.3_HWrevF.revG_SystemCD/Demonstrations/FPGA/DE1_SoC_SDRAM_Nios_Test/software/sdram_nios_test_v2_bsp/\libhal_bsp.a(alt_kill.o)
 .debug_abbrev  0x00000000000091d1       0xab c:/fpga/DE1-SoC_v.5.1.3_HWrevF.revG_SystemCD/Demonstrations/FPGA/DE1_SoC_SDRAM_Nios_Test/software/sdram_nios_test_v2_bsp/\libhal_bsp.a(alt_load.o)
 .debug_abbrev  0x000000000000927c      0x133 c:/fpga/DE1-SoC_v.5.1.3_HWrevF.revG_SystemCD/Demonstrations/FPGA/DE1_SoC_SDRAM_Nios_Test/software/sdram_nios_test_v2_bsp/\libhal_bsp.a(alt_lseek.o)
 .debug_abbrev  0x00000000000093af       0x86 c:/fpga/DE1-SoC_v.5.1.3_HWrevF.revG_SystemCD/Demonstrations/FPGA/DE1_SoC_SDRAM_Nios_Test/software/sdram_nios_test_v2_bsp/\libhal_bsp.a(alt_main.o)
 .debug_abbrev  0x0000000000009435      0x1e7 c:/fpga/DE1-SoC_v.5.1.3_HWrevF.revG_SystemCD/Demonstrations/FPGA/DE1_SoC_SDRAM_Nios_Test/software/sdram_nios_test_v2_bsp/\libhal_bsp.a(alt_malloc_lock.o)
 .debug_abbrev  0x000000000000961c      0x144 c:/fpga/DE1-SoC_v.5.1.3_HWrevF.revG_SystemCD/Demonstrations/FPGA/DE1_SoC_SDRAM_Nios_Test/software/sdram_nios_test_v2_bsp/\libhal_bsp.a(alt_read.o)
 .debug_abbrev  0x0000000000009760       0xea c:/fpga/DE1-SoC_v.5.1.3_HWrevF.revG_SystemCD/Demonstrations/FPGA/DE1_SoC_SDRAM_Nios_Test/software/sdram_nios_test_v2_bsp/\libhal_bsp.a(alt_release_fd.o)
 .debug_abbrev  0x000000000000984a      0x11d c:/fpga/DE1-SoC_v.5.1.3_HWrevF.revG_SystemCD/Demonstrations/FPGA/DE1_SoC_SDRAM_Nios_Test/software/sdram_nios_test_v2_bsp/\libhal_bsp.a(alt_sbrk.o)
 .debug_abbrev  0x0000000000009967      0x17a c:/fpga/DE1-SoC_v.5.1.3_HWrevF.revG_SystemCD/Demonstrations/FPGA/DE1_SoC_SDRAM_Nios_Test/software/sdram_nios_test_v2_bsp/\libhal_bsp.a(alt_tick.o)
 .debug_abbrev  0x0000000000009ae1       0x66 c:/fpga/DE1-SoC_v.5.1.3_HWrevF.revG_SystemCD/Demonstrations/FPGA/DE1_SoC_SDRAM_Nios_Test/software/sdram_nios_test_v2_bsp/\libhal_bsp.a(alt_usleep.o)
 .debug_abbrev  0x0000000000009b47      0x149 c:/fpga/DE1-SoC_v.5.1.3_HWrevF.revG_SystemCD/Demonstrations/FPGA/DE1_SoC_SDRAM_Nios_Test/software/sdram_nios_test_v2_bsp/\libhal_bsp.a(alt_write.o)
 .debug_abbrev  0x0000000000009c90      0x1a7 c:/fpga/DE1-SoC_v.5.1.3_HWrevF.revG_SystemCD/Demonstrations/FPGA/DE1_SoC_SDRAM_Nios_Test/software/sdram_nios_test_v2_bsp/\libhal_bsp.a(alt_sys_init.o)
 .debug_abbrev  0x0000000000009e37      0x146 c:/fpga/DE1-SoC_v.5.1.3_HWrevF.revG_SystemCD/Demonstrations/FPGA/DE1_SoC_SDRAM_Nios_Test/software/sdram_nios_test_v2_bsp/\libhal_bsp.a(altera_avalon_jtag_uart_fd.o)
 .debug_abbrev  0x0000000000009f7d      0x1be c:/fpga/DE1-SoC_v.5.1.3_HWrevF.revG_SystemCD/Demonstrations/FPGA/DE1_SoC_SDRAM_Nios_Test/software/sdram_nios_test_v2_bsp/\libhal_bsp.a(altera_avalon_jtag_uart_init.o)
 .debug_abbrev  0x000000000000a13b      0x112 c:/fpga/DE1-SoC_v.5.1.3_HWrevF.revG_SystemCD/Demonstrations/FPGA/DE1_SoC_SDRAM_Nios_Test/software/sdram_nios_test_v2_bsp/\libhal_bsp.a(altera_avalon_jtag_uart_ioctl.o)
 .debug_abbrev  0x000000000000a24d      0x1b0 c:/fpga/DE1-SoC_v.5.1.3_HWrevF.revG_SystemCD/Demonstrations/FPGA/DE1_SoC_SDRAM_Nios_Test/software/sdram_nios_test_v2_bsp/\libhal_bsp.a(altera_avalon_jtag_uart_read.o)
 .debug_abbrev  0x000000000000a3fd      0x1ae c:/fpga/DE1-SoC_v.5.1.3_HWrevF.revG_SystemCD/Demonstrations/FPGA/DE1_SoC_SDRAM_Nios_Test/software/sdram_nios_test_v2_bsp/\libhal_bsp.a(altera_avalon_jtag_uart_write.o)
 .debug_abbrev  0x000000000000a5ab      0x14b c:/fpga/DE1-SoC_v.5.1.3_HWrevF.revG_SystemCD/Demonstrations/FPGA/DE1_SoC_SDRAM_Nios_Test/software/sdram_nios_test_v2_bsp/\libhal_bsp.a(altera_avalon_timer_sc.o)
 .debug_abbrev  0x000000000000a6f6      0x188 c:/fpga/DE1-SoC_v.5.1.3_HWrevF.revG_SystemCD/Demonstrations/FPGA/DE1_SoC_SDRAM_Nios_Test/software/sdram_nios_test_v2_bsp/\libhal_bsp.a(alt_alarm_start.o)
 .debug_abbrev  0x000000000000a87e       0x88 c:/fpga/DE1-SoC_v.5.1.3_HWrevF.revG_SystemCD/Demonstrations/FPGA/DE1_SoC_SDRAM_Nios_Test/software/sdram_nios_test_v2_bsp/\libhal_bsp.a(alt_busy_sleep.o)
 .debug_abbrev  0x000000000000a906      0x12a c:/fpga/DE1-SoC_v.5.1.3_HWrevF.revG_SystemCD/Demonstrations/FPGA/DE1_SoC_SDRAM_Nios_Test/software/sdram_nios_test_v2_bsp/\libhal_bsp.a(alt_dev_llist_insert.o)
 .debug_abbrev  0x000000000000aa30       0x81 c:/fpga/DE1-SoC_v.5.1.3_HWrevF.revG_SystemCD/Demonstrations/FPGA/DE1_SoC_SDRAM_Nios_Test/software/sdram_nios_test_v2_bsp/\libhal_bsp.a(alt_do_ctors.o)
 .debug_abbrev  0x000000000000aab1       0x81 c:/fpga/DE1-SoC_v.5.1.3_HWrevF.revG_SystemCD/Demonstrations/FPGA/DE1_SoC_SDRAM_Nios_Test/software/sdram_nios_test_v2_bsp/\libhal_bsp.a(alt_do_dtors.o)
 .debug_abbrev  0x000000000000ab32       0x44 c:/fpga/DE1-SoC_v.5.1.3_HWrevF.revG_SystemCD/Demonstrations/FPGA/DE1_SoC_SDRAM_Nios_Test/software/sdram_nios_test_v2_bsp/\libhal_bsp.a(alt_icache_flush_all.o)
 .debug_abbrev  0x000000000000ab76      0x189 c:/fpga/DE1-SoC_v.5.1.3_HWrevF.revG_SystemCD/Demonstrations/FPGA/DE1_SoC_SDRAM_Nios_Test/software/sdram_nios_test_v2_bsp/\libhal_bsp.a(alt_iic.o)
 .debug_abbrev  0x000000000000acff      0x17c c:/fpga/DE1-SoC_v.5.1.3_HWrevF.revG_SystemCD/Demonstrations/FPGA/DE1_SoC_SDRAM_Nios_Test/software/sdram_nios_test_v2_bsp/\libhal_bsp.a(alt_iic_isr_register.o)
 .debug_abbrev  0x000000000000ae7b      0x126 c:/fpga/DE1-SoC_v.5.1.3_HWrevF.revG_SystemCD/Demonstrations/FPGA/DE1_SoC_SDRAM_Nios_Test/software/sdram_nios_test_v2_bsp/\libhal_bsp.a(alt_io_redirect.o)
 .debug_abbrev  0x000000000000afa1       0x12 c:/fpga/DE1-SoC_v.5.1.3_HWrevF.revG_SystemCD/Demonstrations/FPGA/DE1_SoC_SDRAM_Nios_Test/software/sdram_nios_test_v2_bsp/\libhal_bsp.a(alt_irq_entry.o)
 .debug_abbrev  0x000000000000afb3      0x12d c:/fpga/DE1-SoC_v.5.1.3_HWrevF.revG_SystemCD/Demonstrations/FPGA/DE1_SoC_SDRAM_Nios_Test/software/sdram_nios_test_v2_bsp/\libhal_bsp.a(alt_irq_handler.o)
 .debug_abbrev  0x000000000000b0e0       0x44 c:/fpga/DE1-SoC_v.5.1.3_HWrevF.revG_SystemCD/Demonstrations/FPGA/DE1_SoC_SDRAM_Nios_Test/software/sdram_nios_test_v2_bsp/\libhal_bsp.a(alt_irq_vars.o)
 .debug_abbrev  0x000000000000b124      0x160 c:/fpga/DE1-SoC_v.5.1.3_HWrevF.revG_SystemCD/Demonstrations/FPGA/DE1_SoC_SDRAM_Nios_Test/software/sdram_nios_test_v2_bsp/\libhal_bsp.a(alt_open.o)
 .debug_abbrev  0x000000000000b284       0x44 c:/fpga/DE1-SoC_v.5.1.3_HWrevF.revG_SystemCD/Demonstrations/FPGA/DE1_SoC_SDRAM_Nios_Test/software/sdram_nios_test_v2_bsp/\libhal_bsp.a(altera_nios2_gen2_irq.o)
 .debug_abbrev  0x000000000000b2c8       0x12 c:/fpga/DE1-SoC_v.5.1.3_HWrevF.revG_SystemCD/Demonstrations/FPGA/DE1_SoC_SDRAM_Nios_Test/software/sdram_nios_test_v2_bsp/\libhal_bsp.a(alt_exception_entry.o)
 .debug_abbrev  0x000000000000b2da       0xed c:/fpga/DE1-SoC_v.5.1.3_HWrevF.revG_SystemCD/Demonstrations/FPGA/DE1_SoC_SDRAM_Nios_Test/software/sdram_nios_test_v2_bsp/\libhal_bsp.a(alt_find_dev.o)
 .debug_abbrev  0x000000000000b3c7      0x100 c:/fpga/DE1-SoC_v.5.1.3_HWrevF.revG_SystemCD/Demonstrations/FPGA/DE1_SoC_SDRAM_Nios_Test/software/sdram_nios_test_v2_bsp/\libhal_bsp.a(alt_find_file.o)
 .debug_abbrev  0x000000000000b4c7      0x121 c:/fpga/DE1-SoC_v.5.1.3_HWrevF.revG_SystemCD/Demonstrations/FPGA/DE1_SoC_SDRAM_Nios_Test/software/sdram_nios_test_v2_bsp/\libhal_bsp.a(alt_get_fd.o)
 .debug_abbrev  0x000000000000b5e8       0xea c:/fpga/DE1-SoC_v.5.1.3_HWrevF.revG_SystemCD/Demonstrations/FPGA/DE1_SoC_SDRAM_Nios_Test/software/sdram_nios_test_v2_bsp/\libhal_bsp.a(alt_instruction_exception_entry.o)
 .debug_abbrev  0x000000000000b6d2       0xb7 c:/intelfpga_lite/20.1/nios2eds/bin/gnu/h-x86_64-mingw32/bin/../lib/gcc/nios2-elf/10.1.1/../../../../../H-x86_64-mingw32/nios2-elf/lib/mno-hw-mul\libc.a(lib_a-atexit.o)
 .debug_abbrev  0x000000000000b789      0x21d c:/intelfpga_lite/20.1/nios2eds/bin/gnu/h-x86_64-mingw32/bin/../lib/gcc/nios2-elf/10.1.1/../../../../../H-x86_64-mingw32/nios2-elf/lib/mno-hw-mul\libc.a(lib_a-exit.o)
 .debug_abbrev  0x000000000000b9a6       0x8d c:/intelfpga_lite/20.1/nios2eds/bin/gnu/h-x86_64-mingw32/bin/../lib/gcc/nios2-elf/10.1.1/../../../../../H-x86_64-mingw32/nios2-elf/lib/mno-hw-mul\libc.a(lib_a-memcmp.o)
 .debug_abbrev  0x000000000000ba33      0x250 c:/intelfpga_lite/20.1/nios2eds/bin/gnu/h-x86_64-mingw32/bin/../lib/gcc/nios2-elf/10.1.1/../../../../../H-x86_64-mingw32/nios2-elf/lib/mno-hw-mul\libc.a(lib_a-__atexit.o)
 .debug_abbrev  0x000000000000bc83      0x259 c:/intelfpga_lite/20.1/nios2eds/bin/gnu/h-x86_64-mingw32/bin/../lib/gcc/nios2-elf/10.1.1/../../../../../H-x86_64-mingw32/nios2-elf/lib/mno-hw-mul\libc.a(lib_a-__call_atexit.o)

.debug_line     0x0000000000000000    0x17cf9
 *(.debug_line)
 .debug_line    0x0000000000000000       0x66 c:/fpga/DE1-SoC_v.5.1.3_HWrevF.revG_SystemCD/Demonstrations/FPGA/DE1_SoC_SDRAM_Nios_Test/software/sdram_nios_test_v2_bsp//obj/HAL/src/crt0.o
 .debug_line    0x0000000000000066      0x176 obj/default/main.o
 .debug_line    0x00000000000001dc      0x478 obj/default/mem_verify.o
 .debug_line    0x0000000000000654      0x306 c:/intelfpga_lite/20.1/nios2eds/bin/gnu/h-x86_64-mingw32/bin/../lib/gcc/nios2-elf/10.1.1/mno-hw-mul\libgcc.a(lib2-divmod.o)
 .debug_line    0x000000000000095a       0xb7 c:/intelfpga_lite/20.1/nios2eds/bin/gnu/h-x86_64-mingw32/bin/../lib/gcc/nios2-elf/10.1.1/mno-hw-mul\libgcc.a(lib2-mul.o)
 .debug_line    0x0000000000000a11      0x238 c:/intelfpga_lite/20.1/nios2eds/bin/gnu/h-x86_64-mingw32/bin/../lib/gcc/nios2-elf/10.1.1/../../../../../H-x86_64-mingw32/nios2-elf/lib/mno-hw-mul\libc.a(lib_a-memcpy.o)
 .debug_line    0x0000000000000c49      0x252 c:/intelfpga_lite/20.1/nios2eds/bin/gnu/h-x86_64-mingw32/bin/../lib/gcc/nios2-elf/10.1.1/../../../../../H-x86_64-mingw32/nios2-elf/lib/mno-hw-mul\libc.a(lib_a-printf.o)
 .debug_line    0x0000000000000e9b      0x220 c:/intelfpga_lite/20.1/nios2eds/bin/gnu/h-x86_64-mingw32/bin/../lib/gcc/nios2-elf/10.1.1/../../../../../H-x86_64-mingw32/nios2-elf/lib/mno-hw-mul\libc.a(lib_a-putchar.o)
 .debug_line    0x00000000000010bb      0x319 c:/intelfpga_lite/20.1/nios2eds/bin/gnu/h-x86_64-mingw32/bin/../lib/gcc/nios2-elf/10.1.1/../../../../../H-x86_64-mingw32/nios2-elf/lib/mno-hw-mul\libc.a(lib_a-puts.o)
 .debug_line    0x00000000000013d4      0x248 c:/intelfpga_lite/20.1/nios2eds/bin/gnu/h-x86_64-mingw32/bin/../lib/gcc/nios2-elf/10.1.1/../../../../../H-x86_64-mingw32/nios2-elf/lib/mno-hw-mul\libc.a(lib_a-rand.o)
 .debug_line    0x000000000000161c      0x1db c:/intelfpga_lite/20.1/nios2eds/bin/gnu/h-x86_64-mingw32/bin/../lib/gcc/nios2-elf/10.1.1/../../../../../H-x86_64-mingw32/nios2-elf/lib/mno-hw-mul\libc.a(lib_a-strlen.o)
 .debug_line    0x00000000000017f7     0x1c84 c:/intelfpga_lite/20.1/nios2eds/bin/gnu/h-x86_64-mingw32/bin/../lib/gcc/nios2-elf/10.1.1/../../../../../H-x86_64-mingw32/nios2-elf/lib/mno-hw-mul\libc.a(lib_a-vfprintf.o)
 .debug_line    0x000000000000347b      0x3c1 c:/intelfpga_lite/20.1/nios2eds/bin/gnu/h-x86_64-mingw32/bin/../lib/gcc/nios2-elf/10.1.1/../../../../../H-x86_64-mingw32/nios2-elf/lib/mno-hw-mul\libc.a(lib_a-wsetup.o)
 .debug_line    0x000000000000383c     0x16d4 c:/intelfpga_lite/20.1/nios2eds/bin/gnu/h-x86_64-mingw32/bin/../lib/gcc/nios2-elf/10.1.1/../../../../../H-x86_64-mingw32/nios2-elf/lib/mno-hw-mul\libc.a(lib_a-dtoa.o)
 .debug_line    0x0000000000004f10      0x567 c:/intelfpga_lite/20.1/nios2eds/bin/gnu/h-x86_64-mingw32/bin/../lib/gcc/nios2-elf/10.1.1/../../../../../H-x86_64-mingw32/nios2-elf/lib/mno-hw-mul\libc.a(lib_a-fflush.o)
 .debug_line    0x0000000000005477      0x6a1 c:/intelfpga_lite/20.1/nios2eds/bin/gnu/h-x86_64-mingw32/bin/../lib/gcc/nios2-elf/10.1.1/../../../../../H-x86_64-mingw32/nios2-elf/lib/mno-hw-mul\libc.a(lib_a-findfp.o)
 .debug_line    0x0000000000005b18      0x5cb c:/intelfpga_lite/20.1/nios2eds/bin/gnu/h-x86_64-mingw32/bin/../lib/gcc/nios2-elf/10.1.1/../../../../../H-x86_64-mingw32/nios2-elf/lib/mno-hw-mul\libc.a(lib_a-freer.o)
 .debug_line    0x00000000000060e3      0x710 c:/intelfpga_lite/20.1/nios2eds/bin/gnu/h-x86_64-mingw32/bin/../lib/gcc/nios2-elf/10.1.1/../../../../../H-x86_64-mingw32/nios2-elf/lib/mno-hw-mul\libc.a(lib_a-fvwrite.o)
 .debug_line    0x00000000000067f3      0x369 c:/intelfpga_lite/20.1/nios2eds/bin/gnu/h-x86_64-mingw32/bin/../lib/gcc/nios2-elf/10.1.1/../../../../../H-x86_64-mingw32/nios2-elf/lib/mno-hw-mul\libc.a(lib_a-fwalk.o)
 .debug_line    0x0000000000006b5c      0x167 c:/intelfpga_lite/20.1/nios2eds/bin/gnu/h-x86_64-mingw32/bin/../lib/gcc/nios2-elf/10.1.1/../../../../../H-x86_64-mingw32/nios2-elf/lib/mno-hw-mul\libc.a(lib_a-impure.o)
 .debug_line    0x0000000000006cc3      0x28d c:/intelfpga_lite/20.1/nios2eds/bin/gnu/h-x86_64-mingw32/bin/../lib/gcc/nios2-elf/10.1.1/../../../../../H-x86_64-mingw32/nios2-elf/lib/mno-hw-mul\libc.a(lib_a-localeconv.o)
 .debug_line    0x0000000000006f50      0x4e7 c:/intelfpga_lite/20.1/nios2eds/bin/gnu/h-x86_64-mingw32/bin/../lib/gcc/nios2-elf/10.1.1/../../../../../H-x86_64-mingw32/nios2-elf/lib/mno-hw-mul\libc.a(lib_a-makebuf.o)
 .debug_line    0x0000000000007437      0x97b c:/intelfpga_lite/20.1/nios2eds/bin/gnu/h-x86_64-mingw32/bin/../lib/gcc/nios2-elf/10.1.1/../../../../../H-x86_64-mingw32/nios2-elf/lib/mno-hw-mul\libc.a(lib_a-mallocr.o)
 .debug_line    0x0000000000007db2      0x224 c:/intelfpga_lite/20.1/nios2eds/bin/gnu/h-x86_64-mingw32/bin/../lib/gcc/nios2-elf/10.1.1/../../../../../H-x86_64-mingw32/nios2-elf/lib/mno-hw-mul\libc.a(lib_a-memchr.o)
 .debug_line    0x0000000000007fd6      0x26e c:/intelfpga_lite/20.1/nios2eds/bin/gnu/h-x86_64-mingw32/bin/../lib/gcc/nios2-elf/10.1.1/../../../../../H-x86_64-mingw32/nios2-elf/lib/mno-hw-mul\libc.a(lib_a-memmove.o)
 .debug_line    0x0000000000008244      0x259 c:/intelfpga_lite/20.1/nios2eds/bin/gnu/h-x86_64-mingw32/bin/../lib/gcc/nios2-elf/10.1.1/../../../../../H-x86_64-mingw32/nios2-elf/lib/mno-hw-mul\libc.a(lib_a-memset.o)
 .debug_line    0x000000000000849d     0x17ff c:/intelfpga_lite/20.1/nios2eds/bin/gnu/h-x86_64-mingw32/bin/../lib/gcc/nios2-elf/10.1.1/../../../../../H-x86_64-mingw32/nios2-elf/lib/mno-hw-mul\libc.a(lib_a-mprec.o)
 .debug_line    0x0000000000009c9c      0x3a7 c:/intelfpga_lite/20.1/nios2eds/bin/gnu/h-x86_64-mingw32/bin/../lib/gcc/nios2-elf/10.1.1/../../../../../H-x86_64-mingw32/nios2-elf/lib/mno-hw-mul\libc.a(lib_a-putc.o)
 .debug_line    0x000000000000a043      0x78a c:/intelfpga_lite/20.1/nios2eds/bin/gnu/h-x86_64-mingw32/bin/../lib/gcc/nios2-elf/10.1.1/../../../../../H-x86_64-mingw32/nios2-elf/lib/mno-hw-mul\libc.a(lib_a-reallocr.o)
 .debug_line    0x000000000000a7cd      0x22b c:/intelfpga_lite/20.1/nios2eds/bin/gnu/h-x86_64-mingw32/bin/../lib/gcc/nios2-elf/10.1.1/../../../../../H-x86_64-mingw32/nios2-elf/lib/mno-hw-mul\libc.a(lib_a-sbrkr.o)
 .debug_line    0x000000000000a9f8      0x339 c:/intelfpga_lite/20.1/nios2eds/bin/gnu/h-x86_64-mingw32/bin/../lib/gcc/nios2-elf/10.1.1/../../../../../H-x86_64-mingw32/nios2-elf/lib/mno-hw-mul\libc.a(lib_a-stdio.o)
 .debug_line    0x000000000000ad31     0x15cb c:/intelfpga_lite/20.1/nios2eds/bin/gnu/h-x86_64-mingw32/bin/../lib/gcc/nios2-elf/10.1.1/../../../../../H-x86_64-mingw32/nios2-elf/lib/mno-hw-mul\libc.a(lib_a-vfiprintf.o)
 .debug_line    0x000000000000c2fc      0x385 c:/intelfpga_lite/20.1/nios2eds/bin/gnu/h-x86_64-mingw32/bin/../lib/gcc/nios2-elf/10.1.1/../../../../../H-x86_64-mingw32/nios2-elf/lib/mno-hw-mul\libc.a(lib_a-wbuf.o)
 .debug_line    0x000000000000c681      0x238 c:/intelfpga_lite/20.1/nios2eds/bin/gnu/h-x86_64-mingw32/bin/../lib/gcc/nios2-elf/10.1.1/../../../../../H-x86_64-mingw32/nios2-elf/lib/mno-hw-mul\libc.a(lib_a-writer.o)
 .debug_line    0x000000000000c8b9      0x237 c:/intelfpga_lite/20.1/nios2eds/bin/gnu/h-x86_64-mingw32/bin/../lib/gcc/nios2-elf/10.1.1/../../../../../H-x86_64-mingw32/nios2-elf/lib/mno-hw-mul\libc.a(closer.o)
 .debug_line    0x000000000000caf0      0x24e c:/intelfpga_lite/20.1/nios2eds/bin/gnu/h-x86_64-mingw32/bin/../lib/gcc/nios2-elf/10.1.1/../../../../../H-x86_64-mingw32/nios2-elf/lib/mno-hw-mul\libc.a(lib_a-assert.o)
 .debug_line    0x000000000000cd3e      0x26b c:/intelfpga_lite/20.1/nios2eds/bin/gnu/h-x86_64-mingw32/bin/../lib/gcc/nios2-elf/10.1.1/../../../../../H-x86_64-mingw32/nios2-elf/lib/mno-hw-mul\libc.a(lib_a-callocr.o)
 .debug_line    0x000000000000cfa9      0x390 c:/intelfpga_lite/20.1/nios2eds/bin/gnu/h-x86_64-mingw32/bin/../lib/gcc/nios2-elf/10.1.1/../../../../../H-x86_64-mingw32/nios2-elf/lib/mno-hw-mul\libc.a(lib_a-fclose.o)
 .debug_line    0x000000000000d339      0x236 c:/intelfpga_lite/20.1/nios2eds/bin/gnu/h-x86_64-mingw32/bin/../lib/gcc/nios2-elf/10.1.1/../../../../../H-x86_64-mingw32/nios2-elf/lib/mno-hw-mul\libc.a(lib_a-fiprintf.o)
 .debug_line    0x000000000000d56f      0x40d c:/intelfpga_lite/20.1/nios2eds/bin/gnu/h-x86_64-mingw32/bin/../lib/gcc/nios2-elf/10.1.1/../../../../../H-x86_64-mingw32/nios2-elf/lib/mno-hw-mul\libc.a(lib_a-fputwc.o)
 .debug_line    0x000000000000d97c      0x2dd c:/intelfpga_lite/20.1/nios2eds/bin/gnu/h-x86_64-mingw32/bin/../lib/gcc/nios2-elf/10.1.1/../../../../../H-x86_64-mingw32/nios2-elf/lib/mno-hw-mul\libc.a(lib_a-fstatr.o)
 .debug_line    0x000000000000dc59       0x61 c:/intelfpga_lite/20.1/nios2eds/bin/gnu/h-x86_64-mingw32/bin/../lib/gcc/nios2-elf/10.1.1/../../../../../H-x86_64-mingw32/nios2-elf/lib/mno-hw-mul\libc.a(lib_a-int_errno.o)
 .debug_line    0x000000000000dcba      0x238 c:/intelfpga_lite/20.1/nios2eds/bin/gnu/h-x86_64-mingw32/bin/../lib/gcc/nios2-elf/10.1.1/../../../../../H-x86_64-mingw32/nios2-elf/lib/mno-hw-mul\libc.a(lib_a-isattyr.o)
 .debug_line    0x000000000000def2      0x35e c:/intelfpga_lite/20.1/nios2eds/bin/gnu/h-x86_64-mingw32/bin/../lib/gcc/nios2-elf/10.1.1/../../../../../H-x86_64-mingw32/nios2-elf/lib/mno-hw-mul\libc.a(lib_a-locale.o)
 .debug_line    0x000000000000e250      0x238 c:/intelfpga_lite/20.1/nios2eds/bin/gnu/h-x86_64-mingw32/bin/../lib/gcc/nios2-elf/10.1.1/../../../../../H-x86_64-mingw32/nios2-elf/lib/mno-hw-mul\libc.a(lib_a-lseekr.o)
 .debug_line    0x000000000000e488      0x2c9 c:/intelfpga_lite/20.1/nios2eds/bin/gnu/h-x86_64-mingw32/bin/../lib/gcc/nios2-elf/10.1.1/../../../../../H-x86_64-mingw32/nios2-elf/lib/mno-hw-mul\libc.a(lib_a-mbtowc_r.o)
 .debug_line    0x000000000000e751      0x237 c:/intelfpga_lite/20.1/nios2eds/bin/gnu/h-x86_64-mingw32/bin/../lib/gcc/nios2-elf/10.1.1/../../../../../H-x86_64-mingw32/nios2-elf/lib/mno-hw-mul\libc.a(lib_a-readr.o)
 .debug_line    0x000000000000e988      0x17b c:/intelfpga_lite/20.1/nios2eds/bin/gnu/h-x86_64-mingw32/bin/../lib/gcc/nios2-elf/10.1.1/../../../../../H-x86_64-mingw32/nios2-elf/lib/mno-hw-mul\libc.a(lib_a-strcmp.o)
 .debug_line    0x000000000000eb03      0x20a c:/intelfpga_lite/20.1/nios2eds/bin/gnu/h-x86_64-mingw32/bin/../lib/gcc/nios2-elf/10.1.1/../../../../../H-x86_64-mingw32/nios2-elf/lib/mno-hw-mul\libc.a(lib_a-vfiprintfr_1.o)
 .debug_line    0x000000000000ed0d      0x376 c:/intelfpga_lite/20.1/nios2eds/bin/gnu/h-x86_64-mingw32/bin/../lib/gcc/nios2-elf/10.1.1/../../../../../H-x86_64-mingw32/nios2-elf/lib/mno-hw-mul\libc.a(lib_a-wcrtomb.o)
 .debug_line    0x000000000000f083      0x2b6 c:/intelfpga_lite/20.1/nios2eds/bin/gnu/h-x86_64-mingw32/bin/../lib/gcc/nios2-elf/10.1.1/../../../../../H-x86_64-mingw32/nios2-elf/lib/mno-hw-mul\libc.a(lib_a-wctomb_r.o)
 .debug_line    0x000000000000f339      0x176 c:/intelfpga_lite/20.1/nios2eds/bin/gnu/h-x86_64-mingw32/bin/../lib/gcc/nios2-elf/10.1.1/../../../../../H-x86_64-mingw32/nios2-elf/lib/mno-hw-mul\libc.a(lib_a-abort.o)
 .debug_line    0x000000000000f4af       0xd8 c:/intelfpga_lite/20.1/nios2eds/bin/gnu/h-x86_64-mingw32/bin/../lib/gcc/nios2-elf/10.1.1/../../../../../H-x86_64-mingw32/nios2-elf/lib/mno-hw-mul\libc.a(lib_a-ctype_.o)
 .debug_line    0x000000000000f587      0x6e2 c:/intelfpga_lite/20.1/nios2eds/bin/gnu/h-x86_64-mingw32/bin/../lib/gcc/nios2-elf/10.1.1/../../../../../H-x86_64-mingw32/nios2-elf/lib/mno-hw-mul\libc.a(lib_a-signal.o)
 .debug_line    0x000000000000fc69      0x261 c:/intelfpga_lite/20.1/nios2eds/bin/gnu/h-x86_64-mingw32/bin/../lib/gcc/nios2-elf/10.1.1/../../../../../H-x86_64-mingw32/nios2-elf/lib/mno-hw-mul\libc.a(lib_a-signalr.o)
 .debug_line    0x000000000000feca      0x135 c:/intelfpga_lite/20.1/nios2eds/bin/gnu/h-x86_64-mingw32/bin/../lib/gcc/nios2-elf/10.1.1/mno-hw-mul\libgcc.a(_muldi3.o)
 .debug_line    0x000000000000ffff      0x365 c:/intelfpga_lite/20.1/nios2eds/bin/gnu/h-x86_64-mingw32/bin/../lib/gcc/nios2-elf/10.1.1/mno-hw-mul\libgcc.a(_udivdi3.o)
 .debug_line    0x0000000000010364      0x395 c:/intelfpga_lite/20.1/nios2eds/bin/gnu/h-x86_64-mingw32/bin/../lib/gcc/nios2-elf/10.1.1/mno-hw-mul\libgcc.a(_umoddi3.o)
 .debug_line    0x00000000000106f9      0xd53 c:/intelfpga_lite/20.1/nios2eds/bin/gnu/h-x86_64-mingw32/bin/../lib/gcc/nios2-elf/10.1.1/mno-hw-mul\libgcc.a(adddf3.o)
 .debug_line    0x000000000001144c      0xb4f c:/intelfpga_lite/20.1/nios2eds/bin/gnu/h-x86_64-mingw32/bin/../lib/gcc/nios2-elf/10.1.1/mno-hw-mul\libgcc.a(divdf3.o)
 .debug_line    0x0000000000011f9b      0x10f c:/intelfpga_lite/20.1/nios2eds/bin/gnu/h-x86_64-mingw32/bin/../lib/gcc/nios2-elf/10.1.1/mno-hw-mul\libgcc.a(eqdf2.o)
 .debug_line    0x00000000000120aa      0x16a c:/intelfpga_lite/20.1/nios2eds/bin/gnu/h-x86_64-mingw32/bin/../lib/gcc/nios2-elf/10.1.1/mno-hw-mul\libgcc.a(gedf2.o)
 .debug_line    0x0000000000012214      0x16a c:/intelfpga_lite/20.1/nios2eds/bin/gnu/h-x86_64-mingw32/bin/../lib/gcc/nios2-elf/10.1.1/mno-hw-mul\libgcc.a(ledf2.o)
 .debug_line    0x000000000001237e      0x9d4 c:/intelfpga_lite/20.1/nios2eds/bin/gnu/h-x86_64-mingw32/bin/../lib/gcc/nios2-elf/10.1.1/mno-hw-mul\libgcc.a(muldf3.o)
 .debug_line    0x0000000000012d52      0xd1c c:/intelfpga_lite/20.1/nios2eds/bin/gnu/h-x86_64-mingw32/bin/../lib/gcc/nios2-elf/10.1.1/mno-hw-mul\libgcc.a(subdf3.o)
 .debug_line    0x0000000000013a6e       0xd5 c:/intelfpga_lite/20.1/nios2eds/bin/gnu/h-x86_64-mingw32/bin/../lib/gcc/nios2-elf/10.1.1/mno-hw-mul\libgcc.a(unorddf2.o)
 .debug_line    0x0000000000013b43      0x131 c:/intelfpga_lite/20.1/nios2eds/bin/gnu/h-x86_64-mingw32/bin/../lib/gcc/nios2-elf/10.1.1/mno-hw-mul\libgcc.a(fixdfsi.o)
 .debug_line    0x0000000000013c74      0x1e6 c:/intelfpga_lite/20.1/nios2eds/bin/gnu/h-x86_64-mingw32/bin/../lib/gcc/nios2-elf/10.1.1/mno-hw-mul\libgcc.a(floatsidf.o)
 .debug_line    0x0000000000013e5a      0x1d1 c:/intelfpga_lite/20.1/nios2eds/bin/gnu/h-x86_64-mingw32/bin/../lib/gcc/nios2-elf/10.1.1/mno-hw-mul\libgcc.a(floatunsidf.o)
 .debug_line    0x000000000001402b       0x59 c:/intelfpga_lite/20.1/nios2eds/bin/gnu/h-x86_64-mingw32/bin/../lib/gcc/nios2-elf/10.1.1/mno-hw-mul\libgcc.a(_clz.o)
 .debug_line    0x0000000000014084       0xaa c:/intelfpga_lite/20.1/nios2eds/bin/gnu/h-x86_64-mingw32/bin/../lib/gcc/nios2-elf/10.1.1/mno-hw-mul\libgcc.a(_clzsi2.o)
 .debug_line    0x000000000001412e      0x1ad c:/fpga/DE1-SoC_v.5.1.3_HWrevF.revG_SystemCD/Demonstrations/FPGA/DE1_SoC_SDRAM_Nios_Test/software/sdram_nios_test_v2_bsp/\libhal_bsp.a(alt_close.o)
 .debug_line    0x00000000000142db       0x53 c:/fpga/DE1-SoC_v.5.1.3_HWrevF.revG_SystemCD/Demonstrations/FPGA/DE1_SoC_SDRAM_Nios_Test/software/sdram_nios_test_v2_bsp/\libhal_bsp.a(alt_dcache_flush_all.o)
 .debug_line    0x000000000001432e      0x19f c:/fpga/DE1-SoC_v.5.1.3_HWrevF.revG_SystemCD/Demonstrations/FPGA/DE1_SoC_SDRAM_Nios_Test/software/sdram_nios_test_v2_bsp/\libhal_bsp.a(alt_dev.o)
 .debug_line    0x00000000000144cd       0x51 c:/fpga/DE1-SoC_v.5.1.3_HWrevF.revG_SystemCD/Demonstrations/FPGA/DE1_SoC_SDRAM_Nios_Test/software/sdram_nios_test_v2_bsp/\libhal_bsp.a(alt_errno.o)
 .debug_line    0x000000000001451e       0x85 c:/fpga/DE1-SoC_v.5.1.3_HWrevF.revG_SystemCD/Demonstrations/FPGA/DE1_SoC_SDRAM_Nios_Test/software/sdram_nios_test_v2_bsp/\libhal_bsp.a(alt_exit.o)
 .debug_line    0x00000000000145a3      0x215 c:/fpga/DE1-SoC_v.5.1.3_HWrevF.revG_SystemCD/Demonstrations/FPGA/DE1_SoC_SDRAM_Nios_Test/software/sdram_nios_test_v2_bsp/\libhal_bsp.a(alt_fstat.o)
 .debug_line    0x00000000000147b8       0x4c c:/fpga/DE1-SoC_v.5.1.3_HWrevF.revG_SystemCD/Demonstrations/FPGA/DE1_SoC_SDRAM_Nios_Test/software/sdram_nios_test_v2_bsp/\libhal_bsp.a(alt_getpid.o)
 .debug_line    0x0000000000014804      0x217 c:/fpga/DE1-SoC_v.5.1.3_HWrevF.revG_SystemCD/Demonstrations/FPGA/DE1_SoC_SDRAM_Nios_Test/software/sdram_nios_test_v2_bsp/\libhal_bsp.a(alt_isatty.o)
 .debug_line    0x0000000000014a1b      0x118 c:/fpga/DE1-SoC_v.5.1.3_HWrevF.revG_SystemCD/Demonstrations/FPGA/DE1_SoC_SDRAM_Nios_Test/software/sdram_nios_test_v2_bsp/\libhal_bsp.a(alt_kill.o)
 .debug_line    0x0000000000014b33       0xa6 c:/fpga/DE1-SoC_v.5.1.3_HWrevF.revG_SystemCD/Demonstrations/FPGA/DE1_SoC_SDRAM_Nios_Test/software/sdram_nios_test_v2_bsp/\libhal_bsp.a(alt_load.o)
 .debug_line    0x0000000000014bd9      0x19e c:/fpga/DE1-SoC_v.5.1.3_HWrevF.revG_SystemCD/Demonstrations/FPGA/DE1_SoC_SDRAM_Nios_Test/software/sdram_nios_test_v2_bsp/\libhal_bsp.a(alt_lseek.o)
 .debug_line    0x0000000000014d77       0x85 c:/fpga/DE1-SoC_v.5.1.3_HWrevF.revG_SystemCD/Demonstrations/FPGA/DE1_SoC_SDRAM_Nios_Test/software/sdram_nios_test_v2_bsp/\libhal_bsp.a(alt_main.o)
 .debug_line    0x0000000000014dfc      0x125 c:/fpga/DE1-SoC_v.5.1.3_HWrevF.revG_SystemCD/Demonstrations/FPGA/DE1_SoC_SDRAM_Nios_Test/software/sdram_nios_test_v2_bsp/\libhal_bsp.a(alt_malloc_lock.o)
 .debug_line    0x0000000000014f21      0x2ac c:/fpga/DE1-SoC_v.5.1.3_HWrevF.revG_SystemCD/Demonstrations/FPGA/DE1_SoC_SDRAM_Nios_Test/software/sdram_nios_test_v2_bsp/\libhal_bsp.a(alt_read.o)
 .debug_line    0x00000000000151cd       0xb6 c:/fpga/DE1-SoC_v.5.1.3_HWrevF.revG_SystemCD/Demonstrations/FPGA/DE1_SoC_SDRAM_Nios_Test/software/sdram_nios_test_v2_bsp/\libhal_bsp.a(alt_release_fd.o)
 .debug_line    0x0000000000015283      0x10f c:/fpga/DE1-SoC_v.5.1.3_HWrevF.revG_SystemCD/Demonstrations/FPGA/DE1_SoC_SDRAM_Nios_Test/software/sdram_nios_test_v2_bsp/\libhal_bsp.a(alt_sbrk.o)
 .debug_line    0x0000000000015392      0x160 c:/fpga/DE1-SoC_v.5.1.3_HWrevF.revG_SystemCD/Demonstrations/FPGA/DE1_SoC_SDRAM_Nios_Test/software/sdram_nios_test_v2_bsp/\libhal_bsp.a(alt_tick.o)
 .debug_line    0x00000000000154f2       0xbf c:/fpga/DE1-SoC_v.5.1.3_HWrevF.revG_SystemCD/Demonstrations/FPGA/DE1_SoC_SDRAM_Nios_Test/software/sdram_nios_test_v2_bsp/\libhal_bsp.a(alt_usleep.o)
 .debug_line    0x00000000000155b1      0x2af c:/fpga/DE1-SoC_v.5.1.3_HWrevF.revG_SystemCD/Demonstrations/FPGA/DE1_SoC_SDRAM_Nios_Test/software/sdram_nios_test_v2_bsp/\libhal_bsp.a(alt_write.o)
 .debug_line    0x0000000000015860      0x148 c:/fpga/DE1-SoC_v.5.1.3_HWrevF.revG_SystemCD/Demonstrations/FPGA/DE1_SoC_SDRAM_Nios_Test/software/sdram_nios_test_v2_bsp/\libhal_bsp.a(alt_sys_init.o)
 .debug_line    0x00000000000159a8      0x149 c:/fpga/DE1-SoC_v.5.1.3_HWrevF.revG_SystemCD/Demonstrations/FPGA/DE1_SoC_SDRAM_Nios_Test/software/sdram_nios_test_v2_bsp/\libhal_bsp.a(altera_avalon_jtag_uart_fd.o)
 .debug_line    0x0000000000015af1      0x25b c:/fpga/DE1-SoC_v.5.1.3_HWrevF.revG_SystemCD/Demonstrations/FPGA/DE1_SoC_SDRAM_Nios_Test/software/sdram_nios_test_v2_bsp/\libhal_bsp.a(altera_avalon_jtag_uart_init.o)
 .debug_line    0x0000000000015d4c      0x154 c:/fpga/DE1-SoC_v.5.1.3_HWrevF.revG_SystemCD/Demonstrations/FPGA/DE1_SoC_SDRAM_Nios_Test/software/sdram_nios_test_v2_bsp/\libhal_bsp.a(altera_avalon_jtag_uart_ioctl.o)
 .debug_line    0x0000000000015ea0      0x1d1 c:/fpga/DE1-SoC_v.5.1.3_HWrevF.revG_SystemCD/Demonstrations/FPGA/DE1_SoC_SDRAM_Nios_Test/software/sdram_nios_test_v2_bsp/\libhal_bsp.a(altera_avalon_jtag_uart_read.o)
 .debug_line    0x0000000000016071      0x1d6 c:/fpga/DE1-SoC_v.5.1.3_HWrevF.revG_SystemCD/Demonstrations/FPGA/DE1_SoC_SDRAM_Nios_Test/software/sdram_nios_test_v2_bsp/\libhal_bsp.a(altera_avalon_jtag_uart_write.o)
 .debug_line    0x0000000000016247       0xfd c:/fpga/DE1-SoC_v.5.1.3_HWrevF.revG_SystemCD/Demonstrations/FPGA/DE1_SoC_SDRAM_Nios_Test/software/sdram_nios_test_v2_bsp/\libhal_bsp.a(altera_avalon_timer_sc.o)
 .debug_line    0x0000000000016344      0x138 c:/fpga/DE1-SoC_v.5.1.3_HWrevF.revG_SystemCD/Demonstrations/FPGA/DE1_SoC_SDRAM_Nios_Test/software/sdram_nios_test_v2_bsp/\libhal_bsp.a(alt_alarm_start.o)
 .debug_line    0x000000000001647c       0xe1 c:/fpga/DE1-SoC_v.5.1.3_HWrevF.revG_SystemCD/Demonstrations/FPGA/DE1_SoC_SDRAM_Nios_Test/software/sdram_nios_test_v2_bsp/\libhal_bsp.a(alt_busy_sleep.o)
 .debug_line    0x000000000001655d      0x106 c:/fpga/DE1-SoC_v.5.1.3_HWrevF.revG_SystemCD/Demonstrations/FPGA/DE1_SoC_SDRAM_Nios_Test/software/sdram_nios_test_v2_bsp/\libhal_bsp.a(alt_dev_llist_insert.o)
 .debug_line    0x0000000000016663       0x66 c:/fpga/DE1-SoC_v.5.1.3_HWrevF.revG_SystemCD/Demonstrations/FPGA/DE1_SoC_SDRAM_Nios_Test/software/sdram_nios_test_v2_bsp/\libhal_bsp.a(alt_do_ctors.o)
 .debug_line    0x00000000000166c9       0x66 c:/fpga/DE1-SoC_v.5.1.3_HWrevF.revG_SystemCD/Demonstrations/FPGA/DE1_SoC_SDRAM_Nios_Test/software/sdram_nios_test_v2_bsp/\libhal_bsp.a(alt_do_dtors.o)
 .debug_line    0x000000000001672f       0x51 c:/fpga/DE1-SoC_v.5.1.3_HWrevF.revG_SystemCD/Demonstrations/FPGA/DE1_SoC_SDRAM_Nios_Test/software/sdram_nios_test_v2_bsp/\libhal_bsp.a(alt_icache_flush_all.o)
 .debug_line    0x0000000000016780      0x123 c:/fpga/DE1-SoC_v.5.1.3_HWrevF.revG_SystemCD/Demonstrations/FPGA/DE1_SoC_SDRAM_Nios_Test/software/sdram_nios_test_v2_bsp/\libhal_bsp.a(alt_iic.o)
 .debug_line    0x00000000000168a3       0xfc c:/fpga/DE1-SoC_v.5.1.3_HWrevF.revG_SystemCD/Demonstrations/FPGA/DE1_SoC_SDRAM_Nios_Test/software/sdram_nios_test_v2_bsp/\libhal_bsp.a(alt_iic_isr_register.o)
 .debug_line    0x000000000001699f      0x1d2 c:/fpga/DE1-SoC_v.5.1.3_HWrevF.revG_SystemCD/Demonstrations/FPGA/DE1_SoC_SDRAM_Nios_Test/software/sdram_nios_test_v2_bsp/\libhal_bsp.a(alt_io_redirect.o)
 .debug_line    0x0000000000016b71       0x6b c:/fpga/DE1-SoC_v.5.1.3_HWrevF.revG_SystemCD/Demonstrations/FPGA/DE1_SoC_SDRAM_Nios_Test/software/sdram_nios_test_v2_bsp/\libhal_bsp.a(alt_irq_entry.o)
 .debug_line    0x0000000000016bdc       0xd4 c:/fpga/DE1-SoC_v.5.1.3_HWrevF.revG_SystemCD/Demonstrations/FPGA/DE1_SoC_SDRAM_Nios_Test/software/sdram_nios_test_v2_bsp/\libhal_bsp.a(alt_irq_handler.o)
 .debug_line    0x0000000000016cb0       0x50 c:/fpga/DE1-SoC_v.5.1.3_HWrevF.revG_SystemCD/Demonstrations/FPGA/DE1_SoC_SDRAM_Nios_Test/software/sdram_nios_test_v2_bsp/\libhal_bsp.a(alt_irq_vars.o)
 .debug_line    0x0000000000016d00      0x1a1 c:/fpga/DE1-SoC_v.5.1.3_HWrevF.revG_SystemCD/Demonstrations/FPGA/DE1_SoC_SDRAM_Nios_Test/software/sdram_nios_test_v2_bsp/\libhal_bsp.a(alt_open.o)
 .debug_line    0x0000000000016ea1       0x57 c:/fpga/DE1-SoC_v.5.1.3_HWrevF.revG_SystemCD/Demonstrations/FPGA/DE1_SoC_SDRAM_Nios_Test/software/sdram_nios_test_v2_bsp/\libhal_bsp.a(altera_nios2_gen2_irq.o)
 .debug_line    0x0000000000016ef8       0xb3 c:/fpga/DE1-SoC_v.5.1.3_HWrevF.revG_SystemCD/Demonstrations/FPGA/DE1_SoC_SDRAM_Nios_Test/software/sdram_nios_test_v2_bsp/\libhal_bsp.a(alt_exception_entry.o)
 .debug_line    0x0000000000016fab       0xb8 c:/fpga/DE1-SoC_v.5.1.3_HWrevF.revG_SystemCD/Demonstrations/FPGA/DE1_SoC_SDRAM_Nios_Test/software/sdram_nios_test_v2_bsp/\libhal_bsp.a(alt_find_dev.o)
 .debug_line    0x0000000000017063      0x103 c:/fpga/DE1-SoC_v.5.1.3_HWrevF.revG_SystemCD/Demonstrations/FPGA/DE1_SoC_SDRAM_Nios_Test/software/sdram_nios_test_v2_bsp/\libhal_bsp.a(alt_find_file.o)
 .debug_line    0x0000000000017166       0xfb c:/fpga/DE1-SoC_v.5.1.3_HWrevF.revG_SystemCD/Demonstrations/FPGA/DE1_SoC_SDRAM_Nios_Test/software/sdram_nios_test_v2_bsp/\libhal_bsp.a(alt_get_fd.o)
 .debug_line    0x0000000000017261       0xd3 c:/fpga/DE1-SoC_v.5.1.3_HWrevF.revG_SystemCD/Demonstrations/FPGA/DE1_SoC_SDRAM_Nios_Test/software/sdram_nios_test_v2_bsp/\libhal_bsp.a(alt_instruction_exception_entry.o)
 .debug_line    0x0000000000017334       0xf7 c:/intelfpga_lite/20.1/nios2eds/bin/gnu/h-x86_64-mingw32/bin/../lib/gcc/nios2-elf/10.1.1/../../../../../H-x86_64-mingw32/nios2-elf/lib/mno-hw-mul\libc.a(lib_a-atexit.o)
 .debug_line    0x000000000001742b      0x22a c:/intelfpga_lite/20.1/nios2eds/bin/gnu/h-x86_64-mingw32/bin/../lib/gcc/nios2-elf/10.1.1/../../../../../H-x86_64-mingw32/nios2-elf/lib/mno-hw-mul\libc.a(lib_a-exit.o)
 .debug_line    0x0000000000017655      0x1e6 c:/intelfpga_lite/20.1/nios2eds/bin/gnu/h-x86_64-mingw32/bin/../lib/gcc/nios2-elf/10.1.1/../../../../../H-x86_64-mingw32/nios2-elf/lib/mno-hw-mul\libc.a(lib_a-memcmp.o)
 .debug_line    0x000000000001783b      0x21b c:/intelfpga_lite/20.1/nios2eds/bin/gnu/h-x86_64-mingw32/bin/../lib/gcc/nios2-elf/10.1.1/../../../../../H-x86_64-mingw32/nios2-elf/lib/mno-hw-mul\libc.a(lib_a-__atexit.o)
 .debug_line    0x0000000000017a56      0x2a3 c:/intelfpga_lite/20.1/nios2eds/bin/gnu/h-x86_64-mingw32/bin/../lib/gcc/nios2-elf/10.1.1/../../../../../H-x86_64-mingw32/nios2-elf/lib/mno-hw-mul\libc.a(lib_a-__call_atexit.o)

.debug_frame    0x0000000000000000     0x261c
 *(.debug_frame)
 .debug_frame   0x0000000000000000       0x2c obj/default/main.o
 .debug_frame   0x000000000000002c       0x64 obj/default/mem_verify.o
 .debug_frame   0x0000000000000090       0x50 c:/intelfpga_lite/20.1/nios2eds/bin/gnu/h-x86_64-mingw32/bin/../lib/gcc/nios2-elf/10.1.1/mno-hw-mul\libgcc.a(lib2-divmod.o)
 .debug_frame   0x00000000000000e0       0x20 c:/intelfpga_lite/20.1/nios2eds/bin/gnu/h-x86_64-mingw32/bin/../lib/gcc/nios2-elf/10.1.1/mno-hw-mul\libgcc.a(lib2-mul.o)
 .debug_frame   0x0000000000000100       0x20 c:/intelfpga_lite/20.1/nios2eds/bin/gnu/h-x86_64-mingw32/bin/../lib/gcc/nios2-elf/10.1.1/../../../../../H-x86_64-mingw32/nios2-elf/lib/mno-hw-mul\libc.a(lib_a-memcpy.o)
 .debug_frame   0x0000000000000120       0x48 c:/intelfpga_lite/20.1/nios2eds/bin/gnu/h-x86_64-mingw32/bin/../lib/gcc/nios2-elf/10.1.1/../../../../../H-x86_64-mingw32/nios2-elf/lib/mno-hw-mul\libc.a(lib_a-printf.o)
 .debug_frame   0x0000000000000168       0x30 c:/intelfpga_lite/20.1/nios2eds/bin/gnu/h-x86_64-mingw32/bin/../lib/gcc/nios2-elf/10.1.1/../../../../../H-x86_64-mingw32/nios2-elf/lib/mno-hw-mul\libc.a(lib_a-putchar.o)
 .debug_frame   0x0000000000000198       0x48 c:/intelfpga_lite/20.1/nios2eds/bin/gnu/h-x86_64-mingw32/bin/../lib/gcc/nios2-elf/10.1.1/../../../../../H-x86_64-mingw32/nios2-elf/lib/mno-hw-mul\libc.a(lib_a-puts.o)
 .debug_frame   0x00000000000001e0       0x44 c:/intelfpga_lite/20.1/nios2eds/bin/gnu/h-x86_64-mingw32/bin/../lib/gcc/nios2-elf/10.1.1/../../../../../H-x86_64-mingw32/nios2-elf/lib/mno-hw-mul\libc.a(lib_a-rand.o)
 .debug_frame   0x0000000000000224       0x20 c:/intelfpga_lite/20.1/nios2eds/bin/gnu/h-x86_64-mingw32/bin/../lib/gcc/nios2-elf/10.1.1/../../../../../H-x86_64-mingw32/nios2-elf/lib/mno-hw-mul\libc.a(lib_a-strlen.o)
 .debug_frame   0x0000000000000244       0xb0 c:/intelfpga_lite/20.1/nios2eds/bin/gnu/h-x86_64-mingw32/bin/../lib/gcc/nios2-elf/10.1.1/../../../../../H-x86_64-mingw32/nios2-elf/lib/mno-hw-mul\libc.a(lib_a-vfprintf.o)
 .debug_frame   0x00000000000002f4       0x38 c:/intelfpga_lite/20.1/nios2eds/bin/gnu/h-x86_64-mingw32/bin/../lib/gcc/nios2-elf/10.1.1/../../../../../H-x86_64-mingw32/nios2-elf/lib/mno-hw-mul\libc.a(lib_a-wsetup.o)
 .debug_frame   0x000000000000032c       0x9c c:/intelfpga_lite/20.1/nios2eds/bin/gnu/h-x86_64-mingw32/bin/../lib/gcc/nios2-elf/10.1.1/../../../../../H-x86_64-mingw32/nios2-elf/lib/mno-hw-mul\libc.a(lib_a-dtoa.o)
 .debug_frame   0x00000000000003c8       0x94 c:/intelfpga_lite/20.1/nios2eds/bin/gnu/h-x86_64-mingw32/bin/../lib/gcc/nios2-elf/10.1.1/../../../../../H-x86_64-mingw32/nios2-elf/lib/mno-hw-mul\libc.a(lib_a-fflush.o)
 .debug_frame   0x000000000000045c      0x12c c:/intelfpga_lite/20.1/nios2eds/bin/gnu/h-x86_64-mingw32/bin/../lib/gcc/nios2-elf/10.1.1/../../../../../H-x86_64-mingw32/nios2-elf/lib/mno-hw-mul\libc.a(lib_a-findfp.o)
 .debug_frame   0x0000000000000588       0x78 c:/intelfpga_lite/20.1/nios2eds/bin/gnu/h-x86_64-mingw32/bin/../lib/gcc/nios2-elf/10.1.1/../../../../../H-x86_64-mingw32/nios2-elf/lib/mno-hw-mul\libc.a(lib_a-freer.o)
 .debug_frame   0x0000000000000600       0x78 c:/intelfpga_lite/20.1/nios2eds/bin/gnu/h-x86_64-mingw32/bin/../lib/gcc/nios2-elf/10.1.1/../../../../../H-x86_64-mingw32/nios2-elf/lib/mno-hw-mul\libc.a(lib_a-fvwrite.o)
 .debug_frame   0x0000000000000678       0x74 c:/intelfpga_lite/20.1/nios2eds/bin/gnu/h-x86_64-mingw32/bin/../lib/gcc/nios2-elf/10.1.1/../../../../../H-x86_64-mingw32/nios2-elf/lib/mno-hw-mul\libc.a(lib_a-fwalk.o)
 .debug_frame   0x00000000000006ec       0x40 c:/intelfpga_lite/20.1/nios2eds/bin/gnu/h-x86_64-mingw32/bin/../lib/gcc/nios2-elf/10.1.1/../../../../../H-x86_64-mingw32/nios2-elf/lib/mno-hw-mul\libc.a(lib_a-localeconv.o)
 .debug_frame   0x000000000000072c       0x70 c:/intelfpga_lite/20.1/nios2eds/bin/gnu/h-x86_64-mingw32/bin/../lib/gcc/nios2-elf/10.1.1/../../../../../H-x86_64-mingw32/nios2-elf/lib/mno-hw-mul\libc.a(lib_a-makebuf.o)
 .debug_frame   0x000000000000079c       0x58 c:/intelfpga_lite/20.1/nios2eds/bin/gnu/h-x86_64-mingw32/bin/../lib/gcc/nios2-elf/10.1.1/../../../../../H-x86_64-mingw32/nios2-elf/lib/mno-hw-mul\libc.a(lib_a-mallocr.o)
 .debug_frame   0x00000000000007f4       0x20 c:/intelfpga_lite/20.1/nios2eds/bin/gnu/h-x86_64-mingw32/bin/../lib/gcc/nios2-elf/10.1.1/../../../../../H-x86_64-mingw32/nios2-elf/lib/mno-hw-mul\libc.a(lib_a-memchr.o)
 .debug_frame   0x0000000000000814       0x20 c:/intelfpga_lite/20.1/nios2eds/bin/gnu/h-x86_64-mingw32/bin/../lib/gcc/nios2-elf/10.1.1/../../../../../H-x86_64-mingw32/nios2-elf/lib/mno-hw-mul\libc.a(lib_a-memmove.o)
 .debug_frame   0x0000000000000834       0x20 c:/intelfpga_lite/20.1/nios2eds/bin/gnu/h-x86_64-mingw32/bin/../lib/gcc/nios2-elf/10.1.1/../../../../../H-x86_64-mingw32/nios2-elf/lib/mno-hw-mul\libc.a(lib_a-memset.o)
 .debug_frame   0x0000000000000854      0x2f4 c:/intelfpga_lite/20.1/nios2eds/bin/gnu/h-x86_64-mingw32/bin/../lib/gcc/nios2-elf/10.1.1/../../../../../H-x86_64-mingw32/nios2-elf/lib/mno-hw-mul\libc.a(lib_a-mprec.o)
 .debug_frame   0x0000000000000b48       0x78 c:/intelfpga_lite/20.1/nios2eds/bin/gnu/h-x86_64-mingw32/bin/../lib/gcc/nios2-elf/10.1.1/../../../../../H-x86_64-mingw32/nios2-elf/lib/mno-hw-mul\libc.a(lib_a-putc.o)
 .debug_frame   0x0000000000000bc0       0x70 c:/intelfpga_lite/20.1/nios2eds/bin/gnu/h-x86_64-mingw32/bin/../lib/gcc/nios2-elf/10.1.1/../../../../../H-x86_64-mingw32/nios2-elf/lib/mno-hw-mul\libc.a(lib_a-reallocr.o)
 .debug_frame   0x0000000000000c30       0x3c c:/intelfpga_lite/20.1/nios2eds/bin/gnu/h-x86_64-mingw32/bin/../lib/gcc/nios2-elf/10.1.1/../../../../../H-x86_64-mingw32/nios2-elf/lib/mno-hw-mul\libc.a(lib_a-sbrkr.o)
 .debug_frame   0x0000000000000c6c       0xb8 c:/intelfpga_lite/20.1/nios2eds/bin/gnu/h-x86_64-mingw32/bin/../lib/gcc/nios2-elf/10.1.1/../../../../../H-x86_64-mingw32/nios2-elf/lib/mno-hw-mul\libc.a(lib_a-stdio.o)
 .debug_frame   0x0000000000000d24      0x104 c:/intelfpga_lite/20.1/nios2eds/bin/gnu/h-x86_64-mingw32/bin/../lib/gcc/nios2-elf/10.1.1/../../../../../H-x86_64-mingw32/nios2-elf/lib/mno-hw-mul\libc.a(lib_a-vfiprintf.o)
 .debug_frame   0x0000000000000e28       0x50 c:/intelfpga_lite/20.1/nios2eds/bin/gnu/h-x86_64-mingw32/bin/../lib/gcc/nios2-elf/10.1.1/../../../../../H-x86_64-mingw32/nios2-elf/lib/mno-hw-mul\libc.a(lib_a-wbuf.o)
 .debug_frame   0x0000000000000e78       0x3c c:/intelfpga_lite/20.1/nios2eds/bin/gnu/h-x86_64-mingw32/bin/../lib/gcc/nios2-elf/10.1.1/../../../../../H-x86_64-mingw32/nios2-elf/lib/mno-hw-mul\libc.a(lib_a-writer.o)
 .debug_frame   0x0000000000000eb4       0x3c c:/intelfpga_lite/20.1/nios2eds/bin/gnu/h-x86_64-mingw32/bin/../lib/gcc/nios2-elf/10.1.1/../../../../../H-x86_64-mingw32/nios2-elf/lib/mno-hw-mul\libc.a(closer.o)
 .debug_frame   0x0000000000000ef0       0x40 c:/intelfpga_lite/20.1/nios2eds/bin/gnu/h-x86_64-mingw32/bin/../lib/gcc/nios2-elf/10.1.1/../../../../../H-x86_64-mingw32/nios2-elf/lib/mno-hw-mul\libc.a(lib_a-assert.o)
 .debug_frame   0x0000000000000f30       0x34 c:/intelfpga_lite/20.1/nios2eds/bin/gnu/h-x86_64-mingw32/bin/../lib/gcc/nios2-elf/10.1.1/../../../../../H-x86_64-mingw32/nios2-elf/lib/mno-hw-mul\libc.a(lib_a-callocr.o)
 .debug_frame   0x0000000000000f64       0x94 c:/intelfpga_lite/20.1/nios2eds/bin/gnu/h-x86_64-mingw32/bin/../lib/gcc/nios2-elf/10.1.1/../../../../../H-x86_64-mingw32/nios2-elf/lib/mno-hw-mul\libc.a(lib_a-fclose.o)
 .debug_frame   0x0000000000000ff8       0x48 c:/intelfpga_lite/20.1/nios2eds/bin/gnu/h-x86_64-mingw32/bin/../lib/gcc/nios2-elf/10.1.1/../../../../../H-x86_64-mingw32/nios2-elf/lib/mno-hw-mul\libc.a(lib_a-fiprintf.o)
 .debug_frame   0x0000000000001040       0x78 c:/intelfpga_lite/20.1/nios2eds/bin/gnu/h-x86_64-mingw32/bin/../lib/gcc/nios2-elf/10.1.1/../../../../../H-x86_64-mingw32/nios2-elf/lib/mno-hw-mul\libc.a(lib_a-fputwc.o)
 .debug_frame   0x00000000000010b8       0x3c c:/intelfpga_lite/20.1/nios2eds/bin/gnu/h-x86_64-mingw32/bin/../lib/gcc/nios2-elf/10.1.1/../../../../../H-x86_64-mingw32/nios2-elf/lib/mno-hw-mul\libc.a(lib_a-fstatr.o)
 .debug_frame   0x00000000000010f4       0x3c c:/intelfpga_lite/20.1/nios2eds/bin/gnu/h-x86_64-mingw32/bin/../lib/gcc/nios2-elf/10.1.1/../../../../../H-x86_64-mingw32/nios2-elf/lib/mno-hw-mul\libc.a(lib_a-isattyr.o)
 .debug_frame   0x0000000000001130       0x80 c:/intelfpga_lite/20.1/nios2eds/bin/gnu/h-x86_64-mingw32/bin/../lib/gcc/nios2-elf/10.1.1/../../../../../H-x86_64-mingw32/nios2-elf/lib/mno-hw-mul\libc.a(lib_a-locale.o)
 .debug_frame   0x00000000000011b0       0x3c c:/intelfpga_lite/20.1/nios2eds/bin/gnu/h-x86_64-mingw32/bin/../lib/gcc/nios2-elf/10.1.1/../../../../../H-x86_64-mingw32/nios2-elf/lib/mno-hw-mul\libc.a(lib_a-lseekr.o)
 .debug_frame   0x00000000000011ec       0x40 c:/intelfpga_lite/20.1/nios2eds/bin/gnu/h-x86_64-mingw32/bin/../lib/gcc/nios2-elf/10.1.1/../../../../../H-x86_64-mingw32/nios2-elf/lib/mno-hw-mul\libc.a(lib_a-mbtowc_r.o)
 .debug_frame   0x000000000000122c       0x3c c:/intelfpga_lite/20.1/nios2eds/bin/gnu/h-x86_64-mingw32/bin/../lib/gcc/nios2-elf/10.1.1/../../../../../H-x86_64-mingw32/nios2-elf/lib/mno-hw-mul\libc.a(lib_a-readr.o)
 .debug_frame   0x0000000000001268       0x20 c:/intelfpga_lite/20.1/nios2eds/bin/gnu/h-x86_64-mingw32/bin/../lib/gcc/nios2-elf/10.1.1/../../../../../H-x86_64-mingw32/nios2-elf/lib/mno-hw-mul\libc.a(lib_a-strcmp.o)
 .debug_frame   0x0000000000001288       0x20 c:/intelfpga_lite/20.1/nios2eds/bin/gnu/h-x86_64-mingw32/bin/../lib/gcc/nios2-elf/10.1.1/../../../../../H-x86_64-mingw32/nios2-elf/lib/mno-hw-mul\libc.a(lib_a-vfiprintfr_1.o)
 .debug_frame   0x00000000000012a8       0x60 c:/intelfpga_lite/20.1/nios2eds/bin/gnu/h-x86_64-mingw32/bin/../lib/gcc/nios2-elf/10.1.1/../../../../../H-x86_64-mingw32/nios2-elf/lib/mno-hw-mul\libc.a(lib_a-wcrtomb.o)
 .debug_frame   0x0000000000001308       0x30 c:/intelfpga_lite/20.1/nios2eds/bin/gnu/h-x86_64-mingw32/bin/../lib/gcc/nios2-elf/10.1.1/../../../../../H-x86_64-mingw32/nios2-elf/lib/mno-hw-mul\libc.a(lib_a-wctomb_r.o)
 .debug_frame   0x0000000000001338       0x28 c:/intelfpga_lite/20.1/nios2eds/bin/gnu/h-x86_64-mingw32/bin/../lib/gcc/nios2-elf/10.1.1/../../../../../H-x86_64-mingw32/nios2-elf/lib/mno-hw-mul\libc.a(lib_a-abort.o)
 .debug_frame   0x0000000000001360      0x17c c:/intelfpga_lite/20.1/nios2eds/bin/gnu/h-x86_64-mingw32/bin/../lib/gcc/nios2-elf/10.1.1/../../../../../H-x86_64-mingw32/nios2-elf/lib/mno-hw-mul\libc.a(lib_a-signal.o)
 .debug_frame   0x00000000000014dc       0x4c c:/intelfpga_lite/20.1/nios2eds/bin/gnu/h-x86_64-mingw32/bin/../lib/gcc/nios2-elf/10.1.1/../../../../../H-x86_64-mingw32/nios2-elf/lib/mno-hw-mul\libc.a(lib_a-signalr.o)
 .debug_frame   0x0000000000001528       0x50 c:/intelfpga_lite/20.1/nios2eds/bin/gnu/h-x86_64-mingw32/bin/../lib/gcc/nios2-elf/10.1.1/mno-hw-mul\libgcc.a(_muldi3.o)
 .debug_frame   0x0000000000001578       0x54 c:/intelfpga_lite/20.1/nios2eds/bin/gnu/h-x86_64-mingw32/bin/../lib/gcc/nios2-elf/10.1.1/mno-hw-mul\libgcc.a(_udivdi3.o)
 .debug_frame   0x00000000000015cc       0x54 c:/intelfpga_lite/20.1/nios2eds/bin/gnu/h-x86_64-mingw32/bin/../lib/gcc/nios2-elf/10.1.1/mno-hw-mul\libgcc.a(_umoddi3.o)
 .debug_frame   0x0000000000001620       0x44 c:/intelfpga_lite/20.1/nios2eds/bin/gnu/h-x86_64-mingw32/bin/../lib/gcc/nios2-elf/10.1.1/mno-hw-mul\libgcc.a(adddf3.o)
 .debug_frame   0x0000000000001664       0x58 c:/intelfpga_lite/20.1/nios2eds/bin/gnu/h-x86_64-mingw32/bin/../lib/gcc/nios2-elf/10.1.1/mno-hw-mul\libgcc.a(divdf3.o)
 .debug_frame   0x00000000000016bc       0x20 c:/intelfpga_lite/20.1/nios2eds/bin/gnu/h-x86_64-mingw32/bin/../lib/gcc/nios2-elf/10.1.1/mno-hw-mul\libgcc.a(eqdf2.o)
 .debug_frame   0x00000000000016dc       0x20 c:/intelfpga_lite/20.1/nios2eds/bin/gnu/h-x86_64-mingw32/bin/../lib/gcc/nios2-elf/10.1.1/mno-hw-mul\libgcc.a(gedf2.o)
 .debug_frame   0x00000000000016fc       0x20 c:/intelfpga_lite/20.1/nios2eds/bin/gnu/h-x86_64-mingw32/bin/../lib/gcc/nios2-elf/10.1.1/mno-hw-mul\libgcc.a(ledf2.o)
 .debug_frame   0x000000000000171c       0x54 c:/intelfpga_lite/20.1/nios2eds/bin/gnu/h-x86_64-mingw32/bin/../lib/gcc/nios2-elf/10.1.1/mno-hw-mul\libgcc.a(muldf3.o)
 .debug_frame   0x0000000000001770       0x44 c:/intelfpga_lite/20.1/nios2eds/bin/gnu/h-x86_64-mingw32/bin/../lib/gcc/nios2-elf/10.1.1/mno-hw-mul\libgcc.a(subdf3.o)
 .debug_frame   0x00000000000017b4       0x20 c:/intelfpga_lite/20.1/nios2eds/bin/gnu/h-x86_64-mingw32/bin/../lib/gcc/nios2-elf/10.1.1/mno-hw-mul\libgcc.a(unorddf2.o)
 .debug_frame   0x00000000000017d4       0x20 c:/intelfpga_lite/20.1/nios2eds/bin/gnu/h-x86_64-mingw32/bin/../lib/gcc/nios2-elf/10.1.1/mno-hw-mul\libgcc.a(fixdfsi.o)
 .debug_frame   0x00000000000017f4       0x38 c:/intelfpga_lite/20.1/nios2eds/bin/gnu/h-x86_64-mingw32/bin/../lib/gcc/nios2-elf/10.1.1/mno-hw-mul\libgcc.a(floatsidf.o)
 .debug_frame   0x000000000000182c       0x34 c:/intelfpga_lite/20.1/nios2eds/bin/gnu/h-x86_64-mingw32/bin/../lib/gcc/nios2-elf/10.1.1/mno-hw-mul\libgcc.a(floatunsidf.o)
 .debug_frame   0x0000000000001860       0x20 c:/intelfpga_lite/20.1/nios2eds/bin/gnu/h-x86_64-mingw32/bin/../lib/gcc/nios2-elf/10.1.1/mno-hw-mul\libgcc.a(_clzsi2.o)
 .debug_frame   0x0000000000001880       0x60 c:/fpga/DE1-SoC_v.5.1.3_HWrevF.revG_SystemCD/Demonstrations/FPGA/DE1_SoC_SDRAM_Nios_Test/software/sdram_nios_test_v2_bsp/\libhal_bsp.a(alt_close.o)
 .debug_frame   0x00000000000018e0       0x34 c:/fpga/DE1-SoC_v.5.1.3_HWrevF.revG_SystemCD/Demonstrations/FPGA/DE1_SoC_SDRAM_Nios_Test/software/sdram_nios_test_v2_bsp/\libhal_bsp.a(alt_dcache_flush_all.o)
 .debug_frame   0x0000000000001914       0x34 c:/fpga/DE1-SoC_v.5.1.3_HWrevF.revG_SystemCD/Demonstrations/FPGA/DE1_SoC_SDRAM_Nios_Test/software/sdram_nios_test_v2_bsp/\libhal_bsp.a(alt_dev.o)
 .debug_frame   0x0000000000001948       0x2c c:/fpga/DE1-SoC_v.5.1.3_HWrevF.revG_SystemCD/Demonstrations/FPGA/DE1_SoC_SDRAM_Nios_Test/software/sdram_nios_test_v2_bsp/\libhal_bsp.a(alt_exit.o)
 .debug_frame   0x0000000000001974       0x60 c:/fpga/DE1-SoC_v.5.1.3_HWrevF.revG_SystemCD/Demonstrations/FPGA/DE1_SoC_SDRAM_Nios_Test/software/sdram_nios_test_v2_bsp/\libhal_bsp.a(alt_fstat.o)
 .debug_frame   0x00000000000019d4       0x34 c:/fpga/DE1-SoC_v.5.1.3_HWrevF.revG_SystemCD/Demonstrations/FPGA/DE1_SoC_SDRAM_Nios_Test/software/sdram_nios_test_v2_bsp/\libhal_bsp.a(alt_getpid.o)
 .debug_frame   0x0000000000001a08       0x60 c:/fpga/DE1-SoC_v.5.1.3_HWrevF.revG_SystemCD/Demonstrations/FPGA/DE1_SoC_SDRAM_Nios_Test/software/sdram_nios_test_v2_bsp/\libhal_bsp.a(alt_isatty.o)
 .debug_frame   0x0000000000001a68       0x60 c:/fpga/DE1-SoC_v.5.1.3_HWrevF.revG_SystemCD/Demonstrations/FPGA/DE1_SoC_SDRAM_Nios_Test/software/sdram_nios_test_v2_bsp/\libhal_bsp.a(alt_kill.o)
 .debug_frame   0x0000000000001ac8       0x5c c:/fpga/DE1-SoC_v.5.1.3_HWrevF.revG_SystemCD/Demonstrations/FPGA/DE1_SoC_SDRAM_Nios_Test/software/sdram_nios_test_v2_bsp/\libhal_bsp.a(alt_load.o)
 .debug_frame   0x0000000000001b24       0x60 c:/fpga/DE1-SoC_v.5.1.3_HWrevF.revG_SystemCD/Demonstrations/FPGA/DE1_SoC_SDRAM_Nios_Test/software/sdram_nios_test_v2_bsp/\libhal_bsp.a(alt_lseek.o)
 .debug_frame   0x0000000000001b84       0x2c c:/fpga/DE1-SoC_v.5.1.3_HWrevF.revG_SystemCD/Demonstrations/FPGA/DE1_SoC_SDRAM_Nios_Test/software/sdram_nios_test_v2_bsp/\libhal_bsp.a(alt_main.o)
 .debug_frame   0x0000000000001bb0       0x58 c:/fpga/DE1-SoC_v.5.1.3_HWrevF.revG_SystemCD/Demonstrations/FPGA/DE1_SoC_SDRAM_Nios_Test/software/sdram_nios_test_v2_bsp/\libhal_bsp.a(alt_malloc_lock.o)
 .debug_frame   0x0000000000001c08       0x60 c:/fpga/DE1-SoC_v.5.1.3_HWrevF.revG_SystemCD/Demonstrations/FPGA/DE1_SoC_SDRAM_Nios_Test/software/sdram_nios_test_v2_bsp/\libhal_bsp.a(alt_read.o)
 .debug_frame   0x0000000000001c68       0x34 c:/fpga/DE1-SoC_v.5.1.3_HWrevF.revG_SystemCD/Demonstrations/FPGA/DE1_SoC_SDRAM_Nios_Test/software/sdram_nios_test_v2_bsp/\libhal_bsp.a(alt_release_fd.o)
 .debug_frame   0x0000000000001c9c       0x34 c:/fpga/DE1-SoC_v.5.1.3_HWrevF.revG_SystemCD/Demonstrations/FPGA/DE1_SoC_SDRAM_Nios_Test/software/sdram_nios_test_v2_bsp/\libhal_bsp.a(alt_sbrk.o)
 .debug_frame   0x0000000000001cd0       0x5c c:/fpga/DE1-SoC_v.5.1.3_HWrevF.revG_SystemCD/Demonstrations/FPGA/DE1_SoC_SDRAM_Nios_Test/software/sdram_nios_test_v2_bsp/\libhal_bsp.a(alt_tick.o)
 .debug_frame   0x0000000000001d2c       0x38 c:/fpga/DE1-SoC_v.5.1.3_HWrevF.revG_SystemCD/Demonstrations/FPGA/DE1_SoC_SDRAM_Nios_Test/software/sdram_nios_test_v2_bsp/\libhal_bsp.a(alt_usleep.o)
 .debug_frame   0x0000000000001d64       0x60 c:/fpga/DE1-SoC_v.5.1.3_HWrevF.revG_SystemCD/Demonstrations/FPGA/DE1_SoC_SDRAM_Nios_Test/software/sdram_nios_test_v2_bsp/\libhal_bsp.a(alt_write.o)
 .debug_frame   0x0000000000001dc4       0x88 c:/fpga/DE1-SoC_v.5.1.3_HWrevF.revG_SystemCD/Demonstrations/FPGA/DE1_SoC_SDRAM_Nios_Test/software/sdram_nios_test_v2_bsp/\libhal_bsp.a(alt_sys_init.o)
 .debug_frame   0x0000000000001e4c       0xb0 c:/fpga/DE1-SoC_v.5.1.3_HWrevF.revG_SystemCD/Demonstrations/FPGA/DE1_SoC_SDRAM_Nios_Test/software/sdram_nios_test_v2_bsp/\libhal_bsp.a(altera_avalon_jtag_uart_fd.o)
 .debug_frame   0x0000000000001efc       0xa4 c:/fpga/DE1-SoC_v.5.1.3_HWrevF.revG_SystemCD/Demonstrations/FPGA/DE1_SoC_SDRAM_Nios_Test/software/sdram_nios_test_v2_bsp/\libhal_bsp.a(altera_avalon_jtag_uart_init.o)
 .debug_frame   0x0000000000001fa0       0x34 c:/fpga/DE1-SoC_v.5.1.3_HWrevF.revG_SystemCD/Demonstrations/FPGA/DE1_SoC_SDRAM_Nios_Test/software/sdram_nios_test_v2_bsp/\libhal_bsp.a(altera_avalon_jtag_uart_ioctl.o)
 .debug_frame   0x0000000000001fd4       0x38 c:/fpga/DE1-SoC_v.5.1.3_HWrevF.revG_SystemCD/Demonstrations/FPGA/DE1_SoC_SDRAM_Nios_Test/software/sdram_nios_test_v2_bsp/\libhal_bsp.a(altera_avalon_jtag_uart_read.o)
 .debug_frame   0x000000000000200c       0x38 c:/fpga/DE1-SoC_v.5.1.3_HWrevF.revG_SystemCD/Demonstrations/FPGA/DE1_SoC_SDRAM_Nios_Test/software/sdram_nios_test_v2_bsp/\libhal_bsp.a(altera_avalon_jtag_uart_write.o)
 .debug_frame   0x0000000000002044       0x60 c:/fpga/DE1-SoC_v.5.1.3_HWrevF.revG_SystemCD/Demonstrations/FPGA/DE1_SoC_SDRAM_Nios_Test/software/sdram_nios_test_v2_bsp/\libhal_bsp.a(altera_avalon_timer_sc.o)
 .debug_frame   0x00000000000020a4       0x34 c:/fpga/DE1-SoC_v.5.1.3_HWrevF.revG_SystemCD/Demonstrations/FPGA/DE1_SoC_SDRAM_Nios_Test/software/sdram_nios_test_v2_bsp/\libhal_bsp.a(alt_alarm_start.o)
 .debug_frame   0x00000000000020d8       0x38 c:/fpga/DE1-SoC_v.5.1.3_HWrevF.revG_SystemCD/Demonstrations/FPGA/DE1_SoC_SDRAM_Nios_Test/software/sdram_nios_test_v2_bsp/\libhal_bsp.a(alt_busy_sleep.o)
 .debug_frame   0x0000000000002110       0x60 c:/fpga/DE1-SoC_v.5.1.3_HWrevF.revG_SystemCD/Demonstrations/FPGA/DE1_SoC_SDRAM_Nios_Test/software/sdram_nios_test_v2_bsp/\libhal_bsp.a(alt_dev_llist_insert.o)
 .debug_frame   0x0000000000002170       0x38 c:/fpga/DE1-SoC_v.5.1.3_HWrevF.revG_SystemCD/Demonstrations/FPGA/DE1_SoC_SDRAM_Nios_Test/software/sdram_nios_test_v2_bsp/\libhal_bsp.a(alt_do_ctors.o)
 .debug_frame   0x00000000000021a8       0x38 c:/fpga/DE1-SoC_v.5.1.3_HWrevF.revG_SystemCD/Demonstrations/FPGA/DE1_SoC_SDRAM_Nios_Test/software/sdram_nios_test_v2_bsp/\libhal_bsp.a(alt_do_dtors.o)
 .debug_frame   0x00000000000021e0       0x34 c:/fpga/DE1-SoC_v.5.1.3_HWrevF.revG_SystemCD/Demonstrations/FPGA/DE1_SoC_SDRAM_Nios_Test/software/sdram_nios_test_v2_bsp/\libhal_bsp.a(alt_icache_flush_all.o)
 .debug_frame   0x0000000000002214       0xa4 c:/fpga/DE1-SoC_v.5.1.3_HWrevF.revG_SystemCD/Demonstrations/FPGA/DE1_SoC_SDRAM_Nios_Test/software/sdram_nios_test_v2_bsp/\libhal_bsp.a(alt_iic.o)
 .debug_frame   0x00000000000022b8       0x38 c:/fpga/DE1-SoC_v.5.1.3_HWrevF.revG_SystemCD/Demonstrations/FPGA/DE1_SoC_SDRAM_Nios_Test/software/sdram_nios_test_v2_bsp/\libhal_bsp.a(alt_iic_isr_register.o)
 .debug_frame   0x00000000000022f0       0x60 c:/fpga/DE1-SoC_v.5.1.3_HWrevF.revG_SystemCD/Demonstrations/FPGA/DE1_SoC_SDRAM_Nios_Test/software/sdram_nios_test_v2_bsp/\libhal_bsp.a(alt_io_redirect.o)
 .debug_frame   0x0000000000002350       0x38 c:/fpga/DE1-SoC_v.5.1.3_HWrevF.revG_SystemCD/Demonstrations/FPGA/DE1_SoC_SDRAM_Nios_Test/software/sdram_nios_test_v2_bsp/\libhal_bsp.a(alt_irq_handler.o)
 .debug_frame   0x0000000000002388       0x84 c:/fpga/DE1-SoC_v.5.1.3_HWrevF.revG_SystemCD/Demonstrations/FPGA/DE1_SoC_SDRAM_Nios_Test/software/sdram_nios_test_v2_bsp/\libhal_bsp.a(alt_open.o)
 .debug_frame   0x000000000000240c       0x34 c:/fpga/DE1-SoC_v.5.1.3_HWrevF.revG_SystemCD/Demonstrations/FPGA/DE1_SoC_SDRAM_Nios_Test/software/sdram_nios_test_v2_bsp/\libhal_bsp.a(altera_nios2_gen2_irq.o)
 .debug_frame   0x0000000000002440       0x38 c:/fpga/DE1-SoC_v.5.1.3_HWrevF.revG_SystemCD/Demonstrations/FPGA/DE1_SoC_SDRAM_Nios_Test/software/sdram_nios_test_v2_bsp/\libhal_bsp.a(alt_find_dev.o)
 .debug_frame   0x0000000000002478       0x38 c:/fpga/DE1-SoC_v.5.1.3_HWrevF.revG_SystemCD/Demonstrations/FPGA/DE1_SoC_SDRAM_Nios_Test/software/sdram_nios_test_v2_bsp/\libhal_bsp.a(alt_find_file.o)
 .debug_frame   0x00000000000024b0       0x34 c:/fpga/DE1-SoC_v.5.1.3_HWrevF.revG_SystemCD/Demonstrations/FPGA/DE1_SoC_SDRAM_Nios_Test/software/sdram_nios_test_v2_bsp/\libhal_bsp.a(alt_get_fd.o)
 .debug_frame   0x00000000000024e4       0x5c c:/fpga/DE1-SoC_v.5.1.3_HWrevF.revG_SystemCD/Demonstrations/FPGA/DE1_SoC_SDRAM_Nios_Test/software/sdram_nios_test_v2_bsp/\libhal_bsp.a(alt_instruction_exception_entry.o)
 .debug_frame   0x0000000000002540       0x20 c:/intelfpga_lite/20.1/nios2eds/bin/gnu/h-x86_64-mingw32/bin/../lib/gcc/nios2-elf/10.1.1/../../../../../H-x86_64-mingw32/nios2-elf/lib/mno-hw-mul\libc.a(lib_a-atexit.o)
 .debug_frame   0x0000000000002560       0x28 c:/intelfpga_lite/20.1/nios2eds/bin/gnu/h-x86_64-mingw32/bin/../lib/gcc/nios2-elf/10.1.1/../../../../../H-x86_64-mingw32/nios2-elf/lib/mno-hw-mul\libc.a(lib_a-exit.o)
 .debug_frame   0x0000000000002588       0x20 c:/intelfpga_lite/20.1/nios2eds/bin/gnu/h-x86_64-mingw32/bin/../lib/gcc/nios2-elf/10.1.1/../../../../../H-x86_64-mingw32/nios2-elf/lib/mno-hw-mul\libc.a(lib_a-memcmp.o)
 .debug_frame   0x00000000000025a8       0x20 c:/intelfpga_lite/20.1/nios2eds/bin/gnu/h-x86_64-mingw32/bin/../lib/gcc/nios2-elf/10.1.1/../../../../../H-x86_64-mingw32/nios2-elf/lib/mno-hw-mul\libc.a(lib_a-__atexit.o)
 .debug_frame   0x00000000000025c8       0x54 c:/intelfpga_lite/20.1/nios2eds/bin/gnu/h-x86_64-mingw32/bin/../lib/gcc/nios2-elf/10.1.1/../../../../../H-x86_64-mingw32/nios2-elf/lib/mno-hw-mul\libc.a(lib_a-__call_atexit.o)

.debug_str      0x0000000000000000     0x4171
 *(.debug_str)
 .debug_str     0x0000000000000000       0x97 c:/fpga/DE1-SoC_v.5.1.3_HWrevF.revG_SystemCD/Demonstrations/FPGA/DE1_SoC_SDRAM_Nios_Test/software/sdram_nios_test_v2_bsp//obj/HAL/src/crt0.o
 .debug_str     0x0000000000000097      0x1a9 obj/default/main.o
                                        0x1fb (size before relaxing)
 .debug_str     0x0000000000000240       0xdf obj/default/mem_verify.o
                                        0x292 (size before relaxing)
 .debug_str     0x000000000000031f      0x195 c:/intelfpga_lite/20.1/nios2eds/bin/gnu/h-x86_64-mingw32/bin/../lib/gcc/nios2-elf/10.1.1/mno-hw-mul\libgcc.a(lib2-divmod.o)
                                        0x1e0 (size before relaxing)
 .debug_str     0x00000000000004b4       0x43 c:/intelfpga_lite/20.1/nios2eds/bin/gnu/h-x86_64-mingw32/bin/../lib/gcc/nios2-elf/10.1.1/mno-hw-mul\libgcc.a(lib2-mul.o)
                                        0x1a1 (size before relaxing)
 .debug_str     0x00000000000004f7      0x15f c:/intelfpga_lite/20.1/nios2eds/bin/gnu/h-x86_64-mingw32/bin/../lib/gcc/nios2-elf/10.1.1/../../../../../H-x86_64-mingw32/nios2-elf/lib/mno-hw-mul\libc.a(lib_a-memcpy.o)
                                        0x202 (size before relaxing)
 .debug_str     0x0000000000000656      0x468 c:/intelfpga_lite/20.1/nios2eds/bin/gnu/h-x86_64-mingw32/bin/../lib/gcc/nios2-elf/10.1.1/../../../../../H-x86_64-mingw32/nios2-elf/lib/mno-hw-mul\libc.a(lib_a-printf.o)
                                        0x5fc (size before relaxing)
 .debug_str     0x0000000000000abe       0x5a c:/intelfpga_lite/20.1/nios2eds/bin/gnu/h-x86_64-mingw32/bin/../lib/gcc/nios2-elf/10.1.1/../../../../../H-x86_64-mingw32/nios2-elf/lib/mno-hw-mul\libc.a(lib_a-putchar.o)
                                        0x5b9 (size before relaxing)
 .debug_str     0x0000000000000b18       0xb1 c:/intelfpga_lite/20.1/nios2eds/bin/gnu/h-x86_64-mingw32/bin/../lib/gcc/nios2-elf/10.1.1/../../../../../H-x86_64-mingw32/nios2-elf/lib/mno-hw-mul\libc.a(lib_a-puts.o)
                                        0x61d (size before relaxing)
 .debug_str     0x0000000000000bc9       0xdc c:/intelfpga_lite/20.1/nios2eds/bin/gnu/h-x86_64-mingw32/bin/../lib/gcc/nios2-elf/10.1.1/../../../../../H-x86_64-mingw32/nios2-elf/lib/mno-hw-mul\libc.a(lib_a-rand.o)
                                        0x5b6 (size before relaxing)
 .debug_str     0x0000000000000ca5       0x4c c:/intelfpga_lite/20.1/nios2eds/bin/gnu/h-x86_64-mingw32/bin/../lib/gcc/nios2-elf/10.1.1/../../../../../H-x86_64-mingw32/nios2-elf/lib/mno-hw-mul\libc.a(lib_a-strlen.o)
                                        0x1ee (size before relaxing)
 .debug_str     0x0000000000000cf1      0x31b c:/intelfpga_lite/20.1/nios2eds/bin/gnu/h-x86_64-mingw32/bin/../lib/gcc/nios2-elf/10.1.1/../../../../../H-x86_64-mingw32/nios2-elf/lib/mno-hw-mul\libc.a(lib_a-vfprintf.o)
                                        0xa41 (size before relaxing)
 .debug_str     0x000000000000100c       0x53 c:/intelfpga_lite/20.1/nios2eds/bin/gnu/h-x86_64-mingw32/bin/../lib/gcc/nios2-elf/10.1.1/../../../../../H-x86_64-mingw32/nios2-elf/lib/mno-hw-mul\libc.a(lib_a-wsetup.o)
                                        0x5d5 (size before relaxing)
 .debug_str     0x000000000000105f      0x1d0 c:/intelfpga_lite/20.1/nios2eds/bin/gnu/h-x86_64-mingw32/bin/../lib/gcc/nios2-elf/10.1.1/../../../../../H-x86_64-mingw32/nios2-elf/lib/mno-hw-mul\libc.a(lib_a-dtoa.o)
                                        0x97b (size before relaxing)
 .debug_str     0x000000000000122f       0x81 c:/intelfpga_lite/20.1/nios2eds/bin/gnu/h-x86_64-mingw32/bin/../lib/gcc/nios2-elf/10.1.1/../../../../../H-x86_64-mingw32/nios2-elf/lib/mno-hw-mul\libc.a(lib_a-fflush.o)
                                        0x616 (size before relaxing)
 .debug_str     0x00000000000012b0      0x175 c:/intelfpga_lite/20.1/nios2eds/bin/gnu/h-x86_64-mingw32/bin/../lib/gcc/nios2-elf/10.1.1/../../../../../H-x86_64-mingw32/nios2-elf/lib/mno-hw-mul\libc.a(lib_a-findfp.o)
                                        0x724 (size before relaxing)
 .debug_str     0x0000000000001425      0x17d c:/intelfpga_lite/20.1/nios2eds/bin/gnu/h-x86_64-mingw32/bin/../lib/gcc/nios2-elf/10.1.1/../../../../../H-x86_64-mingw32/nios2-elf/lib/mno-hw-mul\libc.a(lib_a-freer.o)
                                        0x705 (size before relaxing)
 .debug_str     0x00000000000015a2       0x70 c:/intelfpga_lite/20.1/nios2eds/bin/gnu/h-x86_64-mingw32/bin/../lib/gcc/nios2-elf/10.1.1/../../../../../H-x86_64-mingw32/nios2-elf/lib/mno-hw-mul\libc.a(lib_a-fvwrite.o)
                                        0x66b (size before relaxing)
 .debug_str     0x0000000000001612       0x4c c:/intelfpga_lite/20.1/nios2eds/bin/gnu/h-x86_64-mingw32/bin/../lib/gcc/nios2-elf/10.1.1/../../../../../H-x86_64-mingw32/nios2-elf/lib/mno-hw-mul\libc.a(lib_a-fwalk.o)
                                        0x5bb (size before relaxing)
 .debug_str     0x000000000000165e       0xd9 c:/intelfpga_lite/20.1/nios2eds/bin/gnu/h-x86_64-mingw32/bin/../lib/gcc/nios2-elf/10.1.1/../../../../../H-x86_64-mingw32/nios2-elf/lib/mno-hw-mul\libc.a(lib_a-impure.o)
                                        0x5b6 (size before relaxing)
 .debug_str     0x0000000000001737      0x135 c:/intelfpga_lite/20.1/nios2eds/bin/gnu/h-x86_64-mingw32/bin/../lib/gcc/nios2-elf/10.1.1/../../../../../H-x86_64-mingw32/nios2-elf/lib/mno-hw-mul\libc.a(lib_a-localeconv.o)
                                        0x7eb (size before relaxing)
 .debug_str     0x000000000000186c      0x16c c:/intelfpga_lite/20.1/nios2eds/bin/gnu/h-x86_64-mingw32/bin/../lib/gcc/nios2-elf/10.1.1/../../../../../H-x86_64-mingw32/nios2-elf/lib/mno-hw-mul\libc.a(lib_a-makebuf.o)
                                        0x737 (size before relaxing)
 .debug_str     0x00000000000019d8       0xe5 c:/intelfpga_lite/20.1/nios2eds/bin/gnu/h-x86_64-mingw32/bin/../lib/gcc/nios2-elf/10.1.1/../../../../../H-x86_64-mingw32/nios2-elf/lib/mno-hw-mul\libc.a(lib_a-mallocr.o)
                                        0x7bb (size before relaxing)
 .debug_str     0x0000000000001abd       0x4d c:/intelfpga_lite/20.1/nios2eds/bin/gnu/h-x86_64-mingw32/bin/../lib/gcc/nios2-elf/10.1.1/../../../../../H-x86_64-mingw32/nios2-elf/lib/mno-hw-mul\libc.a(lib_a-memchr.o)
                                        0x1f5 (size before relaxing)
 .debug_str     0x0000000000001b0a       0x49 c:/intelfpga_lite/20.1/nios2eds/bin/gnu/h-x86_64-mingw32/bin/../lib/gcc/nios2-elf/10.1.1/../../../../../H-x86_64-mingw32/nios2-elf/lib/mno-hw-mul\libc.a(lib_a-memmove.o)
                                        0x20e (size before relaxing)
 .debug_str     0x0000000000001b53       0x46 c:/intelfpga_lite/20.1/nios2eds/bin/gnu/h-x86_64-mingw32/bin/../lib/gcc/nios2-elf/10.1.1/../../../../../H-x86_64-mingw32/nios2-elf/lib/mno-hw-mul\libc.a(lib_a-memset.o)
                                        0x1ef (size before relaxing)
 .debug_str     0x0000000000001b99       0xa9 c:/intelfpga_lite/20.1/nios2eds/bin/gnu/h-x86_64-mingw32/bin/../lib/gcc/nios2-elf/10.1.1/../../../../../H-x86_64-mingw32/nios2-elf/lib/mno-hw-mul\libc.a(lib_a-mprec.o)
                                        0x8ee (size before relaxing)
 .debug_str     0x0000000000001c42       0x4b c:/intelfpga_lite/20.1/nios2eds/bin/gnu/h-x86_64-mingw32/bin/../lib/gcc/nios2-elf/10.1.1/../../../../../H-x86_64-mingw32/nios2-elf/lib/mno-hw-mul\libc.a(lib_a-putc.o)
                                        0x5d6 (size before relaxing)
 .debug_str     0x0000000000001c8d       0x4e c:/intelfpga_lite/20.1/nios2eds/bin/gnu/h-x86_64-mingw32/bin/../lib/gcc/nios2-elf/10.1.1/../../../../../H-x86_64-mingw32/nios2-elf/lib/mno-hw-mul\libc.a(lib_a-reallocr.o)
                                        0x697 (size before relaxing)
 .debug_str     0x0000000000001cdb       0x51 c:/intelfpga_lite/20.1/nios2eds/bin/gnu/h-x86_64-mingw32/bin/../lib/gcc/nios2-elf/10.1.1/../../../../../H-x86_64-mingw32/nios2-elf/lib/mno-hw-mul\libc.a(lib_a-sbrkr.o)
                                        0x5ac (size before relaxing)
 .debug_str     0x0000000000001d2c       0x9d c:/intelfpga_lite/20.1/nios2eds/bin/gnu/h-x86_64-mingw32/bin/../lib/gcc/nios2-elf/10.1.1/../../../../../H-x86_64-mingw32/nios2-elf/lib/mno-hw-mul\libc.a(lib_a-stdio.o)
                                        0x60a (size before relaxing)
 .debug_str     0x0000000000001dc9       0x37 c:/intelfpga_lite/20.1/nios2eds/bin/gnu/h-x86_64-mingw32/bin/../lib/gcc/nios2-elf/10.1.1/../../../../../H-x86_64-mingw32/nios2-elf/lib/mno-hw-mul\libc.a(lib_a-vfiprintf.o)
                                        0x96c (size before relaxing)
 .debug_str     0x0000000000001e00       0x44 c:/intelfpga_lite/20.1/nios2eds/bin/gnu/h-x86_64-mingw32/bin/../lib/gcc/nios2-elf/10.1.1/../../../../../H-x86_64-mingw32/nios2-elf/lib/mno-hw-mul\libc.a(lib_a-wbuf.o)
                                        0x5da (size before relaxing)
 .debug_str     0x0000000000001e44       0x3e c:/intelfpga_lite/20.1/nios2eds/bin/gnu/h-x86_64-mingw32/bin/../lib/gcc/nios2-elf/10.1.1/../../../../../H-x86_64-mingw32/nios2-elf/lib/mno-hw-mul\libc.a(lib_a-writer.o)
                                        0x5b0 (size before relaxing)
 .debug_str     0x0000000000001e82       0x3e c:/intelfpga_lite/20.1/nios2eds/bin/gnu/h-x86_64-mingw32/bin/../lib/gcc/nios2-elf/10.1.1/../../../../../H-x86_64-mingw32/nios2-elf/lib/mno-hw-mul\libc.a(closer.o)
                                        0x5a0 (size before relaxing)
 .debug_str     0x0000000000001ec0       0x67 c:/intelfpga_lite/20.1/nios2eds/bin/gnu/h-x86_64-mingw32/bin/../lib/gcc/nios2-elf/10.1.1/../../../../../H-x86_64-mingw32/nios2-elf/lib/mno-hw-mul\libc.a(lib_a-assert.o)
                                        0x5d9 (size before relaxing)
 .debug_str     0x0000000000001f27        0xf c:/intelfpga_lite/20.1/nios2eds/bin/gnu/h-x86_64-mingw32/bin/../lib/gcc/nios2-elf/10.1.1/../../../../../H-x86_64-mingw32/nios2-elf/lib/mno-hw-mul\libc.a(lib_a-callocr.o)
                                        0x609 (size before relaxing)
 .debug_str     0x0000000000001f36       0x4f c:/intelfpga_lite/20.1/nios2eds/bin/gnu/h-x86_64-mingw32/bin/../lib/gcc/nios2-elf/10.1.1/../../../../../H-x86_64-mingw32/nios2-elf/lib/mno-hw-mul\libc.a(lib_a-fclose.o)
                                        0x603 (size before relaxing)
 .debug_str     0x0000000000001f85       0x59 c:/intelfpga_lite/20.1/nios2eds/bin/gnu/h-x86_64-mingw32/bin/../lib/gcc/nios2-elf/10.1.1/../../../../../H-x86_64-mingw32/nios2-elf/lib/mno-hw-mul\libc.a(lib_a-fiprintf.o)
                                        0x5e9 (size before relaxing)
 .debug_str     0x0000000000001fde       0x66 c:/intelfpga_lite/20.1/nios2eds/bin/gnu/h-x86_64-mingw32/bin/../lib/gcc/nios2-elf/10.1.1/../../../../../H-x86_64-mingw32/nios2-elf/lib/mno-hw-mul\libc.a(lib_a-fputwc.o)
                                        0x60c (size before relaxing)
 .debug_str     0x0000000000002044       0x4a c:/intelfpga_lite/20.1/nios2eds/bin/gnu/h-x86_64-mingw32/bin/../lib/gcc/nios2-elf/10.1.1/../../../../../H-x86_64-mingw32/nios2-elf/lib/mno-hw-mul\libc.a(lib_a-fstatr.o)
                                        0x6eb (size before relaxing)
 .debug_str     0x000000000000208e       0x41 c:/intelfpga_lite/20.1/nios2eds/bin/gnu/h-x86_64-mingw32/bin/../lib/gcc/nios2-elf/10.1.1/../../../../../H-x86_64-mingw32/nios2-elf/lib/mno-hw-mul\libc.a(lib_a-int_errno.o)
                                        0x1d4 (size before relaxing)
 .debug_str     0x00000000000020cf       0x46 c:/intelfpga_lite/20.1/nios2eds/bin/gnu/h-x86_64-mingw32/bin/../lib/gcc/nios2-elf/10.1.1/../../../../../H-x86_64-mingw32/nios2-elf/lib/mno-hw-mul\libc.a(lib_a-isattyr.o)
                                        0x5a3 (size before relaxing)
 .debug_str     0x0000000000002115       0x7b c:/intelfpga_lite/20.1/nios2eds/bin/gnu/h-x86_64-mingw32/bin/../lib/gcc/nios2-elf/10.1.1/../../../../../H-x86_64-mingw32/nios2-elf/lib/mno-hw-mul\libc.a(lib_a-locale.o)
                                        0x807 (size before relaxing)
 .debug_str     0x0000000000002190       0x44 c:/intelfpga_lite/20.1/nios2eds/bin/gnu/h-x86_64-mingw32/bin/../lib/gcc/nios2-elf/10.1.1/../../../../../H-x86_64-mingw32/nios2-elf/lib/mno-hw-mul\libc.a(lib_a-lseekr.o)
                                        0x5a7 (size before relaxing)
 .debug_str     0x00000000000021d4       0x60 c:/intelfpga_lite/20.1/nios2eds/bin/gnu/h-x86_64-mingw32/bin/../lib/gcc/nios2-elf/10.1.1/../../../../../H-x86_64-mingw32/nios2-elf/lib/mno-hw-mul\libc.a(lib_a-mbtowc_r.o)
                                        0x7cb (size before relaxing)
 .debug_str     0x0000000000002234       0x3d c:/intelfpga_lite/20.1/nios2eds/bin/gnu/h-x86_64-mingw32/bin/../lib/gcc/nios2-elf/10.1.1/../../../../../H-x86_64-mingw32/nios2-elf/lib/mno-hw-mul\libc.a(lib_a-readr.o)
                                        0x5ad (size before relaxing)
 .debug_str     0x0000000000002271       0x3f c:/intelfpga_lite/20.1/nios2eds/bin/gnu/h-x86_64-mingw32/bin/../lib/gcc/nios2-elf/10.1.1/../../../../../H-x86_64-mingw32/nios2-elf/lib/mno-hw-mul\libc.a(lib_a-strcmp.o)
                                        0x1d4 (size before relaxing)
 .debug_str     0x00000000000022b0       0x44 c:/intelfpga_lite/20.1/nios2eds/bin/gnu/h-x86_64-mingw32/bin/../lib/gcc/nios2-elf/10.1.1/../../../../../H-x86_64-mingw32/nios2-elf/lib/mno-hw-mul\libc.a(lib_a-vfiprintfr_1.o)
                                        0x5e9 (size before relaxing)
 .debug_str     0x00000000000022f4       0x4f c:/intelfpga_lite/20.1/nios2eds/bin/gnu/h-x86_64-mingw32/bin/../lib/gcc/nios2-elf/10.1.1/../../../../../H-x86_64-mingw32/nios2-elf/lib/mno-hw-mul\libc.a(lib_a-wcrtomb.o)
                                        0x7d1 (size before relaxing)
 .debug_str     0x0000000000002343       0x61 c:/intelfpga_lite/20.1/nios2eds/bin/gnu/h-x86_64-mingw32/bin/../lib/gcc/nios2-elf/10.1.1/../../../../../H-x86_64-mingw32/nios2-elf/lib/mno-hw-mul\libc.a(lib_a-wctomb_r.o)
                                        0x7d2 (size before relaxing)
 .debug_str     0x00000000000023a4       0x44 c:/intelfpga_lite/20.1/nios2eds/bin/gnu/h-x86_64-mingw32/bin/../lib/gcc/nios2-elf/10.1.1/../../../../../H-x86_64-mingw32/nios2-elf/lib/mno-hw-mul\libc.a(lib_a-abort.o)
                                        0x1de (size before relaxing)
 .debug_str     0x00000000000023e8       0xd5 c:/intelfpga_lite/20.1/nios2eds/bin/gnu/h-x86_64-mingw32/bin/../lib/gcc/nios2-elf/10.1.1/../../../../../H-x86_64-mingw32/nios2-elf/lib/mno-hw-mul\libc.a(lib_a-ctype_.o)
                                        0x1dc (size before relaxing)
 .debug_str     0x00000000000024bd      0x135 c:/intelfpga_lite/20.1/nios2eds/bin/gnu/h-x86_64-mingw32/bin/../lib/gcc/nios2-elf/10.1.1/../../../../../H-x86_64-mingw32/nios2-elf/lib/mno-hw-mul\libc.a(lib_a-signal.o)
                                        0x63d (size before relaxing)
 .debug_str     0x00000000000025f2       0x4b c:/intelfpga_lite/20.1/nios2eds/bin/gnu/h-x86_64-mingw32/bin/../lib/gcc/nios2-elf/10.1.1/../../../../../H-x86_64-mingw32/nios2-elf/lib/mno-hw-mul\libc.a(lib_a-signalr.o)
                                        0x5b0 (size before relaxing)
 .debug_str     0x000000000000263d       0x87 c:/intelfpga_lite/20.1/nios2eds/bin/gnu/h-x86_64-mingw32/bin/../lib/gcc/nios2-elf/10.1.1/mno-hw-mul\libgcc.a(_muldi3.o)
                                        0x241 (size before relaxing)
 .debug_str     0x00000000000026c4       0xf7 c:/intelfpga_lite/20.1/nios2eds/bin/gnu/h-x86_64-mingw32/bin/../lib/gcc/nios2-elf/10.1.1/mno-hw-mul\libgcc.a(_udivdi3.o)
                                        0x2c3 (size before relaxing)
 .debug_str     0x00000000000027bb      0x2c3 c:/intelfpga_lite/20.1/nios2eds/bin/gnu/h-x86_64-mingw32/bin/../lib/gcc/nios2-elf/10.1.1/mno-hw-mul\libgcc.a(_umoddi3.o)
 .debug_str     0x00000000000027bb      0x187 c:/intelfpga_lite/20.1/nios2eds/bin/gnu/h-x86_64-mingw32/bin/../lib/gcc/nios2-elf/10.1.1/mno-hw-mul\libgcc.a(adddf3.o)
                                        0x32b (size before relaxing)
 .debug_str     0x0000000000002942      0x195 c:/intelfpga_lite/20.1/nios2eds/bin/gnu/h-x86_64-mingw32/bin/../lib/gcc/nios2-elf/10.1.1/mno-hw-mul\libgcc.a(divdf3.o)
                                        0x40a (size before relaxing)
 .debug_str     0x0000000000002ad7       0x43 c:/intelfpga_lite/20.1/nios2eds/bin/gnu/h-x86_64-mingw32/bin/../lib/gcc/nios2-elf/10.1.1/mno-hw-mul\libgcc.a(eqdf2.o)
                                        0x22e (size before relaxing)
 .debug_str     0x0000000000002b1a       0x5e c:/intelfpga_lite/20.1/nios2eds/bin/gnu/h-x86_64-mingw32/bin/../lib/gcc/nios2-elf/10.1.1/mno-hw-mul\libgcc.a(gedf2.o)
                                        0x252 (size before relaxing)
 .debug_str     0x0000000000002b78       0x32 c:/intelfpga_lite/20.1/nios2eds/bin/gnu/h-x86_64-mingw32/bin/../lib/gcc/nios2-elf/10.1.1/mno-hw-mul\libgcc.a(ledf2.o)
                                        0x252 (size before relaxing)
 .debug_str     0x0000000000002baa      0x158 c:/intelfpga_lite/20.1/nios2eds/bin/gnu/h-x86_64-mingw32/bin/../lib/gcc/nios2-elf/10.1.1/mno-hw-mul\libgcc.a(muldf3.o)
                                        0x44e (size before relaxing)
 .debug_str     0x0000000000002d02       0x33 c:/intelfpga_lite/20.1/nios2eds/bin/gnu/h-x86_64-mingw32/bin/../lib/gcc/nios2-elf/10.1.1/mno-hw-mul\libgcc.a(subdf3.o)
                                        0x32b (size before relaxing)
 .debug_str     0x0000000000002d35       0x35 c:/intelfpga_lite/20.1/nios2eds/bin/gnu/h-x86_64-mingw32/bin/../lib/gcc/nios2-elf/10.1.1/mno-hw-mul\libgcc.a(unorddf2.o)
                                        0x234 (size before relaxing)
 .debug_str     0x0000000000002d6a       0x47 c:/intelfpga_lite/20.1/nios2eds/bin/gnu/h-x86_64-mingw32/bin/../lib/gcc/nios2-elf/10.1.1/mno-hw-mul\libgcc.a(fixdfsi.o)
                                        0x239 (size before relaxing)
 .debug_str     0x0000000000002db1       0x63 c:/intelfpga_lite/20.1/nios2eds/bin/gnu/h-x86_64-mingw32/bin/../lib/gcc/nios2-elf/10.1.1/mno-hw-mul\libgcc.a(floatsidf.o)
                                        0x2dd (size before relaxing)
 .debug_str     0x0000000000002e14       0x38 c:/intelfpga_lite/20.1/nios2eds/bin/gnu/h-x86_64-mingw32/bin/../lib/gcc/nios2-elf/10.1.1/mno-hw-mul\libgcc.a(floatunsidf.o)
                                        0x2da (size before relaxing)
 .debug_str     0x0000000000002e4c      0x1ed c:/intelfpga_lite/20.1/nios2eds/bin/gnu/h-x86_64-mingw32/bin/../lib/gcc/nios2-elf/10.1.1/mno-hw-mul\libgcc.a(_clz.o)
 .debug_str     0x0000000000002e4c      0x20a c:/intelfpga_lite/20.1/nios2eds/bin/gnu/h-x86_64-mingw32/bin/../lib/gcc/nios2-elf/10.1.1/mno-hw-mul\libgcc.a(_clzsi2.o)
 .debug_str     0x0000000000002e4c       0x9d c:/fpga/DE1-SoC_v.5.1.3_HWrevF.revG_SystemCD/Demonstrations/FPGA/DE1_SoC_SDRAM_Nios_Test/software/sdram_nios_test_v2_bsp/\libhal_bsp.a(alt_close.o)
                                        0x23e (size before relaxing)
 .debug_str     0x0000000000002ee9       0x34 c:/fpga/DE1-SoC_v.5.1.3_HWrevF.revG_SystemCD/Demonstrations/FPGA/DE1_SoC_SDRAM_Nios_Test/software/sdram_nios_test_v2_bsp/\libhal_bsp.a(alt_dcache_flush_all.o)
                                        0x195 (size before relaxing)
 .debug_str     0x0000000000002f1d       0x5d c:/fpga/DE1-SoC_v.5.1.3_HWrevF.revG_SystemCD/Demonstrations/FPGA/DE1_SoC_SDRAM_Nios_Test/software/sdram_nios_test_v2_bsp/\libhal_bsp.a(alt_dev.o)
                                        0x3a4 (size before relaxing)
 .debug_str     0x0000000000002f7a       0x14 c:/fpga/DE1-SoC_v.5.1.3_HWrevF.revG_SystemCD/Demonstrations/FPGA/DE1_SoC_SDRAM_Nios_Test/software/sdram_nios_test_v2_bsp/\libhal_bsp.a(alt_errno.o)
                                        0x17f (size before relaxing)
 .debug_str     0x0000000000002f8e       0x2a c:/fpga/DE1-SoC_v.5.1.3_HWrevF.revG_SystemCD/Demonstrations/FPGA/DE1_SoC_SDRAM_Nios_Test/software/sdram_nios_test_v2_bsp/\libhal_bsp.a(alt_exit.o)
                                        0x191 (size before relaxing)
 .debug_str     0x0000000000002fb8       0x14 c:/fpga/DE1-SoC_v.5.1.3_HWrevF.revG_SystemCD/Demonstrations/FPGA/DE1_SoC_SDRAM_Nios_Test/software/sdram_nios_test_v2_bsp/\libhal_bsp.a(alt_fstat.o)
                                        0x37e (size before relaxing)
 .debug_str     0x0000000000002fcc       0x15 c:/fpga/DE1-SoC_v.5.1.3_HWrevF.revG_SystemCD/Demonstrations/FPGA/DE1_SoC_SDRAM_Nios_Test/software/sdram_nios_test_v2_bsp/\libhal_bsp.a(alt_getpid.o)
                                         0xe8 (size before relaxing)
 .debug_str     0x0000000000002fe1       0x15 c:/fpga/DE1-SoC_v.5.1.3_HWrevF.revG_SystemCD/Demonstrations/FPGA/DE1_SoC_SDRAM_Nios_Test/software/sdram_nios_test_v2_bsp/\libhal_bsp.a(alt_isatty.o)
                                        0x386 (size before relaxing)
 .debug_str     0x0000000000002ff6       0x1a c:/fpga/DE1-SoC_v.5.1.3_HWrevF.revG_SystemCD/Demonstrations/FPGA/DE1_SoC_SDRAM_Nios_Test/software/sdram_nios_test_v2_bsp/\libhal_bsp.a(alt_kill.o)
                                        0x19e (size before relaxing)
 .debug_str     0x0000000000003010       0xe9 c:/fpga/DE1-SoC_v.5.1.3_HWrevF.revG_SystemCD/Demonstrations/FPGA/DE1_SoC_SDRAM_Nios_Test/software/sdram_nios_test_v2_bsp/\libhal_bsp.a(alt_load.o)
                                        0x252 (size before relaxing)
 .debug_str     0x00000000000030f9       0x14 c:/fpga/DE1-SoC_v.5.1.3_HWrevF.revG_SystemCD/Demonstrations/FPGA/DE1_SoC_SDRAM_Nios_Test/software/sdram_nios_test_v2_bsp/\libhal_bsp.a(alt_lseek.o)
                                        0x24c (size before relaxing)
 .debug_str     0x000000000000310d       0x44 c:/fpga/DE1-SoC_v.5.1.3_HWrevF.revG_SystemCD/Demonstrations/FPGA/DE1_SoC_SDRAM_Nios_Test/software/sdram_nios_test_v2_bsp/\libhal_bsp.a(alt_main.o)
                                        0x1ac (size before relaxing)
 .debug_str     0x0000000000003151       0x1a c:/fpga/DE1-SoC_v.5.1.3_HWrevF.revG_SystemCD/Demonstrations/FPGA/DE1_SoC_SDRAM_Nios_Test/software/sdram_nios_test_v2_bsp/\libhal_bsp.a(alt_malloc_lock.o)
                                        0x559 (size before relaxing)
 .debug_str     0x000000000000316b       0x13 c:/fpga/DE1-SoC_v.5.1.3_HWrevF.revG_SystemCD/Demonstrations/FPGA/DE1_SoC_SDRAM_Nios_Test/software/sdram_nios_test_v2_bsp/\libhal_bsp.a(alt_read.o)
                                        0x389 (size before relaxing)
 .debug_str     0x000000000000317e       0x28 c:/fpga/DE1-SoC_v.5.1.3_HWrevF.revG_SystemCD/Demonstrations/FPGA/DE1_SoC_SDRAM_Nios_Test/software/sdram_nios_test_v2_bsp/\libhal_bsp.a(alt_release_fd.o)
                                        0x20f (size before relaxing)
 .debug_str     0x00000000000031a6       0x82 c:/fpga/DE1-SoC_v.5.1.3_HWrevF.revG_SystemCD/Demonstrations/FPGA/DE1_SoC_SDRAM_Nios_Test/software/sdram_nios_test_v2_bsp/\libhal_bsp.a(alt_sbrk.o)
                                        0x1fe (size before relaxing)
 .debug_str     0x0000000000003228       0x8c c:/fpga/DE1-SoC_v.5.1.3_HWrevF.revG_SystemCD/Demonstrations/FPGA/DE1_SoC_SDRAM_Nios_Test/software/sdram_nios_test_v2_bsp/\libhal_bsp.a(alt_tick.o)
                                        0x292 (size before relaxing)
 .debug_str     0x00000000000032b4       0x29 c:/fpga/DE1-SoC_v.5.1.3_HWrevF.revG_SystemCD/Demonstrations/FPGA/DE1_SoC_SDRAM_Nios_Test/software/sdram_nios_test_v2_bsp/\libhal_bsp.a(alt_usleep.o)
                                        0x195 (size before relaxing)
 .debug_str     0x00000000000032dd       0x14 c:/fpga/DE1-SoC_v.5.1.3_HWrevF.revG_SystemCD/Demonstrations/FPGA/DE1_SoC_SDRAM_Nios_Test/software/sdram_nios_test_v2_bsp/\libhal_bsp.a(alt_write.o)
                                        0x38a (size before relaxing)
 .debug_str     0x00000000000032f1      0x119 c:/fpga/DE1-SoC_v.5.1.3_HWrevF.revG_SystemCD/Demonstrations/FPGA/DE1_SoC_SDRAM_Nios_Test/software/sdram_nios_test_v2_bsp/\libhal_bsp.a(alt_sys_init.o)
                                        0x37b (size before relaxing)
 .debug_str     0x000000000000340a       0xac c:/fpga/DE1-SoC_v.5.1.3_HWrevF.revG_SystemCD/Demonstrations/FPGA/DE1_SoC_SDRAM_Nios_Test/software/sdram_nios_test_v2_bsp/\libhal_bsp.a(altera_avalon_jtag_uart_fd.o)
                                        0x3bc (size before relaxing)
 .debug_str     0x00000000000034b6       0xd1 c:/fpga/DE1-SoC_v.5.1.3_HWrevF.revG_SystemCD/Demonstrations/FPGA/DE1_SoC_SDRAM_Nios_Test/software/sdram_nios_test_v2_bsp/\libhal_bsp.a(altera_avalon_jtag_uart_init.o)
                                        0x35f (size before relaxing)
 .debug_str     0x0000000000003587       0x4a c:/fpga/DE1-SoC_v.5.1.3_HWrevF.revG_SystemCD/Demonstrations/FPGA/DE1_SoC_SDRAM_Nios_Test/software/sdram_nios_test_v2_bsp/\libhal_bsp.a(altera_avalon_jtag_uart_ioctl.o)
                                        0x2ab (size before relaxing)
 .debug_str     0x00000000000035d1       0x48 c:/fpga/DE1-SoC_v.5.1.3_HWrevF.revG_SystemCD/Demonstrations/FPGA/DE1_SoC_SDRAM_Nios_Test/software/sdram_nios_test_v2_bsp/\libhal_bsp.a(altera_avalon_jtag_uart_read.o)
                                        0x300 (size before relaxing)
 .debug_str     0x0000000000003619       0x4a c:/fpga/DE1-SoC_v.5.1.3_HWrevF.revG_SystemCD/Demonstrations/FPGA/DE1_SoC_SDRAM_Nios_Test/software/sdram_nios_test_v2_bsp/\libhal_bsp.a(altera_avalon_jtag_uart_write.o)
                                        0x301 (size before relaxing)
 .debug_str     0x0000000000003663       0x72 c:/fpga/DE1-SoC_v.5.1.3_HWrevF.revG_SystemCD/Demonstrations/FPGA/DE1_SoC_SDRAM_Nios_Test/software/sdram_nios_test_v2_bsp/\libhal_bsp.a(altera_avalon_timer_sc.o)
                                        0x24e (size before relaxing)
 .debug_str     0x00000000000036d5       0x4a c:/fpga/DE1-SoC_v.5.1.3_HWrevF.revG_SystemCD/Demonstrations/FPGA/DE1_SoC_SDRAM_Nios_Test/software/sdram_nios_test_v2_bsp/\libhal_bsp.a(alt_alarm_start.o)
                                        0x2be (size before relaxing)
 .debug_str     0x000000000000371f       0x42 c:/fpga/DE1-SoC_v.5.1.3_HWrevF.revG_SystemCD/Demonstrations/FPGA/DE1_SoC_SDRAM_Nios_Test/software/sdram_nios_test_v2_bsp/\libhal_bsp.a(alt_busy_sleep.o)
                                        0x1ab (size before relaxing)
 .debug_str     0x0000000000003761       0x34 c:/fpga/DE1-SoC_v.5.1.3_HWrevF.revG_SystemCD/Demonstrations/FPGA/DE1_SoC_SDRAM_Nios_Test/software/sdram_nios_test_v2_bsp/\libhal_bsp.a(alt_dev_llist_insert.o)
                                        0x20c (size before relaxing)
 .debug_str     0x0000000000003795       0x48 c:/fpga/DE1-SoC_v.5.1.3_HWrevF.revG_SystemCD/Demonstrations/FPGA/DE1_SoC_SDRAM_Nios_Test/software/sdram_nios_test_v2_bsp/\libhal_bsp.a(alt_do_ctors.o)
                                        0x119 (size before relaxing)
 .debug_str     0x00000000000037dd       0x4c c:/fpga/DE1-SoC_v.5.1.3_HWrevF.revG_SystemCD/Demonstrations/FPGA/DE1_SoC_SDRAM_Nios_Test/software/sdram_nios_test_v2_bsp/\libhal_bsp.a(alt_do_dtors.o)
                                        0x118 (size before relaxing)
 .debug_str     0x0000000000003829       0x34 c:/fpga/DE1-SoC_v.5.1.3_HWrevF.revG_SystemCD/Demonstrations/FPGA/DE1_SoC_SDRAM_Nios_Test/software/sdram_nios_test_v2_bsp/\libhal_bsp.a(alt_icache_flush_all.o)
                                        0x195 (size before relaxing)
 .debug_str     0x000000000000385d       0xab c:/fpga/DE1-SoC_v.5.1.3_HWrevF.revG_SystemCD/Demonstrations/FPGA/DE1_SoC_SDRAM_Nios_Test/software/sdram_nios_test_v2_bsp/\libhal_bsp.a(alt_iic.o)
                                        0x26c (size before relaxing)
 .debug_str     0x0000000000003908       0x4c c:/fpga/DE1-SoC_v.5.1.3_HWrevF.revG_SystemCD/Demonstrations/FPGA/DE1_SoC_SDRAM_Nios_Test/software/sdram_nios_test_v2_bsp/\libhal_bsp.a(alt_iic_isr_register.o)
                                        0x228 (size before relaxing)
 .debug_str     0x0000000000003954       0x56 c:/fpga/DE1-SoC_v.5.1.3_HWrevF.revG_SystemCD/Demonstrations/FPGA/DE1_SoC_SDRAM_Nios_Test/software/sdram_nios_test_v2_bsp/\libhal_bsp.a(alt_io_redirect.o)
                                        0x3a8 (size before relaxing)
 .debug_str     0x00000000000039aa       0x18 c:/fpga/DE1-SoC_v.5.1.3_HWrevF.revG_SystemCD/Demonstrations/FPGA/DE1_SoC_SDRAM_Nios_Test/software/sdram_nios_test_v2_bsp/\libhal_bsp.a(alt_irq_entry.o)
                                         0xa0 (size before relaxing)
 .debug_str     0x00000000000039c2       0x3a c:/fpga/DE1-SoC_v.5.1.3_HWrevF.revG_SystemCD/Demonstrations/FPGA/DE1_SoC_SDRAM_Nios_Test/software/sdram_nios_test_v2_bsp/\libhal_bsp.a(alt_irq_handler.o)
                                        0x1d7 (size before relaxing)
 .debug_str     0x00000000000039fc       0x29 c:/fpga/DE1-SoC_v.5.1.3_HWrevF.revG_SystemCD/Demonstrations/FPGA/DE1_SoC_SDRAM_Nios_Test/software/sdram_nios_test_v2_bsp/\libhal_bsp.a(alt_irq_vars.o)
                                        0x183 (size before relaxing)
 .debug_str     0x0000000000003a25       0x29 c:/fpga/DE1-SoC_v.5.1.3_HWrevF.revG_SystemCD/Demonstrations/FPGA/DE1_SoC_SDRAM_Nios_Test/software/sdram_nios_test_v2_bsp/\libhal_bsp.a(alt_open.o)
                                        0x28b (size before relaxing)
 .debug_str     0x0000000000003a4e       0x3b c:/fpga/DE1-SoC_v.5.1.3_HWrevF.revG_SystemCD/Demonstrations/FPGA/DE1_SoC_SDRAM_Nios_Test/software/sdram_nios_test_v2_bsp/\libhal_bsp.a(altera_nios2_gen2_irq.o)
                                        0x19c (size before relaxing)
 .debug_str     0x0000000000003a89       0x1e c:/fpga/DE1-SoC_v.5.1.3_HWrevF.revG_SystemCD/Demonstrations/FPGA/DE1_SoC_SDRAM_Nios_Test/software/sdram_nios_test_v2_bsp/\libhal_bsp.a(alt_exception_entry.o)
                                         0xa6 (size before relaxing)
 .debug_str     0x0000000000003aa7       0x24 c:/fpga/DE1-SoC_v.5.1.3_HWrevF.revG_SystemCD/Demonstrations/FPGA/DE1_SoC_SDRAM_Nios_Test/software/sdram_nios_test_v2_bsp/\libhal_bsp.a(alt_find_dev.o)
                                        0x21f (size before relaxing)
 .debug_str     0x0000000000003acb       0x26 c:/fpga/DE1-SoC_v.5.1.3_HWrevF.revG_SystemCD/Demonstrations/FPGA/DE1_SoC_SDRAM_Nios_Test/software/sdram_nios_test_v2_bsp/\libhal_bsp.a(alt_find_file.o)
                                        0x22d (size before relaxing)
 .debug_str     0x0000000000003af1       0x30 c:/fpga/DE1-SoC_v.5.1.3_HWrevF.revG_SystemCD/Demonstrations/FPGA/DE1_SoC_SDRAM_Nios_Test/software/sdram_nios_test_v2_bsp/\libhal_bsp.a(alt_get_fd.o)
                                        0x24f (size before relaxing)
 .debug_str     0x0000000000003b21      0x48b c:/fpga/DE1-SoC_v.5.1.3_HWrevF.revG_SystemCD/Demonstrations/FPGA/DE1_SoC_SDRAM_Nios_Test/software/sdram_nios_test_v2_bsp/\libhal_bsp.a(alt_instruction_exception_entry.o)
                                        0x5e9 (size before relaxing)
 .debug_str     0x0000000000003fac       0x83 c:/intelfpga_lite/20.1/nios2eds/bin/gnu/h-x86_64-mingw32/bin/../lib/gcc/nios2-elf/10.1.1/../../../../../H-x86_64-mingw32/nios2-elf/lib/mno-hw-mul\libc.a(lib_a-atexit.o)
                                        0x218 (size before relaxing)
 .debug_str     0x000000000000402f       0x4e c:/intelfpga_lite/20.1/nios2eds/bin/gnu/h-x86_64-mingw32/bin/../lib/gcc/nios2-elf/10.1.1/../../../../../H-x86_64-mingw32/nios2-elf/lib/mno-hw-mul\libc.a(lib_a-exit.o)
                                        0x5bf (size before relaxing)
 .debug_str     0x000000000000407d       0x46 c:/intelfpga_lite/20.1/nios2eds/bin/gnu/h-x86_64-mingw32/bin/../lib/gcc/nios2-elf/10.1.1/../../../../../H-x86_64-mingw32/nios2-elf/lib/mno-hw-mul\libc.a(lib_a-memcmp.o)
                                        0x1db (size before relaxing)
 .debug_str     0x00000000000040c3       0x41 c:/intelfpga_lite/20.1/nios2eds/bin/gnu/h-x86_64-mingw32/bin/../lib/gcc/nios2-elf/10.1.1/../../../../../H-x86_64-mingw32/nios2-elf/lib/mno-hw-mul\libc.a(lib_a-__atexit.o)
                                        0x5f0 (size before relaxing)
 .debug_str     0x0000000000004104       0x6d c:/intelfpga_lite/20.1/nios2eds/bin/gnu/h-x86_64-mingw32/bin/../lib/gcc/nios2-elf/10.1.1/../../../../../H-x86_64-mingw32/nios2-elf/lib/mno-hw-mul\libc.a(lib_a-__call_atexit.o)
                                        0x5e9 (size before relaxing)

.debug_loc      0x0000000000000000    0x1e7ef
 *(.debug_loc)
 .debug_loc     0x0000000000000000      0x5d0 c:/intelfpga_lite/20.1/nios2eds/bin/gnu/h-x86_64-mingw32/bin/../lib/gcc/nios2-elf/10.1.1/mno-hw-mul\libgcc.a(lib2-divmod.o)
 .debug_loc     0x00000000000005d0       0xa7 c:/intelfpga_lite/20.1/nios2eds/bin/gnu/h-x86_64-mingw32/bin/../lib/gcc/nios2-elf/10.1.1/mno-hw-mul\libgcc.a(lib2-mul.o)
 .debug_loc     0x0000000000000677      0x347 c:/intelfpga_lite/20.1/nios2eds/bin/gnu/h-x86_64-mingw32/bin/../lib/gcc/nios2-elf/10.1.1/../../../../../H-x86_64-mingw32/nios2-elf/lib/mno-hw-mul\libc.a(lib_a-memcpy.o)
 .debug_loc     0x00000000000009be       0xe1 c:/intelfpga_lite/20.1/nios2eds/bin/gnu/h-x86_64-mingw32/bin/../lib/gcc/nios2-elf/10.1.1/../../../../../H-x86_64-mingw32/nios2-elf/lib/mno-hw-mul\libc.a(lib_a-printf.o)
 .debug_loc     0x0000000000000a9f       0x91 c:/intelfpga_lite/20.1/nios2eds/bin/gnu/h-x86_64-mingw32/bin/../lib/gcc/nios2-elf/10.1.1/../../../../../H-x86_64-mingw32/nios2-elf/lib/mno-hw-mul\libc.a(lib_a-putchar.o)
 .debug_loc     0x0000000000000b30      0x143 c:/intelfpga_lite/20.1/nios2eds/bin/gnu/h-x86_64-mingw32/bin/../lib/gcc/nios2-elf/10.1.1/../../../../../H-x86_64-mingw32/nios2-elf/lib/mno-hw-mul\libc.a(lib_a-puts.o)
 .debug_loc     0x0000000000000c73       0x15 c:/intelfpga_lite/20.1/nios2eds/bin/gnu/h-x86_64-mingw32/bin/../lib/gcc/nios2-elf/10.1.1/../../../../../H-x86_64-mingw32/nios2-elf/lib/mno-hw-mul\libc.a(lib_a-rand.o)
 .debug_loc     0x0000000000000c88       0x73 c:/intelfpga_lite/20.1/nios2eds/bin/gnu/h-x86_64-mingw32/bin/../lib/gcc/nios2-elf/10.1.1/../../../../../H-x86_64-mingw32/nios2-elf/lib/mno-hw-mul\libc.a(lib_a-strlen.o)
 .debug_loc     0x0000000000000cfb     0x3bb1 c:/intelfpga_lite/20.1/nios2eds/bin/gnu/h-x86_64-mingw32/bin/../lib/gcc/nios2-elf/10.1.1/../../../../../H-x86_64-mingw32/nios2-elf/lib/mno-hw-mul\libc.a(lib_a-vfprintf.o)
 .debug_loc     0x00000000000048ac       0xd4 c:/intelfpga_lite/20.1/nios2eds/bin/gnu/h-x86_64-mingw32/bin/../lib/gcc/nios2-elf/10.1.1/../../../../../H-x86_64-mingw32/nios2-elf/lib/mno-hw-mul\libc.a(lib_a-wsetup.o)
 .debug_loc     0x0000000000004980     0x3082 c:/intelfpga_lite/20.1/nios2eds/bin/gnu/h-x86_64-mingw32/bin/../lib/gcc/nios2-elf/10.1.1/../../../../../H-x86_64-mingw32/nios2-elf/lib/mno-hw-mul\libc.a(lib_a-dtoa.o)
 .debug_loc     0x0000000000007a02      0x4c6 c:/intelfpga_lite/20.1/nios2eds/bin/gnu/h-x86_64-mingw32/bin/../lib/gcc/nios2-elf/10.1.1/../../../../../H-x86_64-mingw32/nios2-elf/lib/mno-hw-mul\libc.a(lib_a-fflush.o)
 .debug_loc     0x0000000000007ec8      0x339 c:/intelfpga_lite/20.1/nios2eds/bin/gnu/h-x86_64-mingw32/bin/../lib/gcc/nios2-elf/10.1.1/../../../../../H-x86_64-mingw32/nios2-elf/lib/mno-hw-mul\libc.a(lib_a-findfp.o)
 .debug_loc     0x0000000000008201      0x614 c:/intelfpga_lite/20.1/nios2eds/bin/gnu/h-x86_64-mingw32/bin/../lib/gcc/nios2-elf/10.1.1/../../../../../H-x86_64-mingw32/nios2-elf/lib/mno-hw-mul\libc.a(lib_a-freer.o)
 .debug_loc     0x0000000000008815      0x748 c:/intelfpga_lite/20.1/nios2eds/bin/gnu/h-x86_64-mingw32/bin/../lib/gcc/nios2-elf/10.1.1/../../../../../H-x86_64-mingw32/nios2-elf/lib/mno-hw-mul\libc.a(lib_a-fvwrite.o)
 .debug_loc     0x0000000000008f5d      0x1eb c:/intelfpga_lite/20.1/nios2eds/bin/gnu/h-x86_64-mingw32/bin/../lib/gcc/nios2-elf/10.1.1/../../../../../H-x86_64-mingw32/nios2-elf/lib/mno-hw-mul\libc.a(lib_a-fwalk.o)
 .debug_loc     0x0000000000009148       0x25 c:/intelfpga_lite/20.1/nios2eds/bin/gnu/h-x86_64-mingw32/bin/../lib/gcc/nios2-elf/10.1.1/../../../../../H-x86_64-mingw32/nios2-elf/lib/mno-hw-mul\libc.a(lib_a-localeconv.o)
 .debug_loc     0x000000000000916d      0x449 c:/intelfpga_lite/20.1/nios2eds/bin/gnu/h-x86_64-mingw32/bin/../lib/gcc/nios2-elf/10.1.1/../../../../../H-x86_64-mingw32/nios2-elf/lib/mno-hw-mul\libc.a(lib_a-makebuf.o)
 .debug_loc     0x00000000000095b6      0xd34 c:/intelfpga_lite/20.1/nios2eds/bin/gnu/h-x86_64-mingw32/bin/../lib/gcc/nios2-elf/10.1.1/../../../../../H-x86_64-mingw32/nios2-elf/lib/mno-hw-mul\libc.a(lib_a-mallocr.o)
 .debug_loc     0x000000000000a2ea      0x240 c:/intelfpga_lite/20.1/nios2eds/bin/gnu/h-x86_64-mingw32/bin/../lib/gcc/nios2-elf/10.1.1/../../../../../H-x86_64-mingw32/nios2-elf/lib/mno-hw-mul\libc.a(lib_a-memchr.o)
 .debug_loc     0x000000000000a52a      0x3ff c:/intelfpga_lite/20.1/nios2eds/bin/gnu/h-x86_64-mingw32/bin/../lib/gcc/nios2-elf/10.1.1/../../../../../H-x86_64-mingw32/nios2-elf/lib/mno-hw-mul\libc.a(lib_a-memmove.o)
 .debug_loc     0x000000000000a929      0x1b5 c:/intelfpga_lite/20.1/nios2eds/bin/gnu/h-x86_64-mingw32/bin/../lib/gcc/nios2-elf/10.1.1/../../../../../H-x86_64-mingw32/nios2-elf/lib/mno-hw-mul\libc.a(lib_a-memset.o)
 .debug_loc     0x000000000000aade     0x2529 c:/intelfpga_lite/20.1/nios2eds/bin/gnu/h-x86_64-mingw32/bin/../lib/gcc/nios2-elf/10.1.1/../../../../../H-x86_64-mingw32/nios2-elf/lib/mno-hw-mul\libc.a(lib_a-mprec.o)
 .debug_loc     0x000000000000d007      0x307 c:/intelfpga_lite/20.1/nios2eds/bin/gnu/h-x86_64-mingw32/bin/../lib/gcc/nios2-elf/10.1.1/../../../../../H-x86_64-mingw32/nios2-elf/lib/mno-hw-mul\libc.a(lib_a-putc.o)
 .debug_loc     0x000000000000d30e     0x11ff c:/intelfpga_lite/20.1/nios2eds/bin/gnu/h-x86_64-mingw32/bin/../lib/gcc/nios2-elf/10.1.1/../../../../../H-x86_64-mingw32/nios2-elf/lib/mno-hw-mul\libc.a(lib_a-reallocr.o)
 .debug_loc     0x000000000000e50d       0x89 c:/intelfpga_lite/20.1/nios2eds/bin/gnu/h-x86_64-mingw32/bin/../lib/gcc/nios2-elf/10.1.1/../../../../../H-x86_64-mingw32/nios2-elf/lib/mno-hw-mul\libc.a(lib_a-sbrkr.o)
 .debug_loc     0x000000000000e596      0x43c c:/intelfpga_lite/20.1/nios2eds/bin/gnu/h-x86_64-mingw32/bin/../lib/gcc/nios2-elf/10.1.1/../../../../../H-x86_64-mingw32/nios2-elf/lib/mno-hw-mul\libc.a(lib_a-stdio.o)
 .debug_loc     0x000000000000e9d2     0x2b13 c:/intelfpga_lite/20.1/nios2eds/bin/gnu/h-x86_64-mingw32/bin/../lib/gcc/nios2-elf/10.1.1/../../../../../H-x86_64-mingw32/nios2-elf/lib/mno-hw-mul\libc.a(lib_a-vfiprintf.o)
 .debug_loc     0x00000000000114e5      0x201 c:/intelfpga_lite/20.1/nios2eds/bin/gnu/h-x86_64-mingw32/bin/../lib/gcc/nios2-elf/10.1.1/../../../../../H-x86_64-mingw32/nios2-elf/lib/mno-hw-mul\libc.a(lib_a-wbuf.o)
 .debug_loc     0x00000000000116e6       0xed c:/intelfpga_lite/20.1/nios2eds/bin/gnu/h-x86_64-mingw32/bin/../lib/gcc/nios2-elf/10.1.1/../../../../../H-x86_64-mingw32/nios2-elf/lib/mno-hw-mul\libc.a(lib_a-writer.o)
 .debug_loc     0x00000000000117d3       0x89 c:/intelfpga_lite/20.1/nios2eds/bin/gnu/h-x86_64-mingw32/bin/../lib/gcc/nios2-elf/10.1.1/../../../../../H-x86_64-mingw32/nios2-elf/lib/mno-hw-mul\libc.a(closer.o)
 .debug_loc     0x000000000001185c      0x1a2 c:/intelfpga_lite/20.1/nios2eds/bin/gnu/h-x86_64-mingw32/bin/../lib/gcc/nios2-elf/10.1.1/../../../../../H-x86_64-mingw32/nios2-elf/lib/mno-hw-mul\libc.a(lib_a-assert.o)
 .debug_loc     0x00000000000119fe      0x350 c:/intelfpga_lite/20.1/nios2eds/bin/gnu/h-x86_64-mingw32/bin/../lib/gcc/nios2-elf/10.1.1/../../../../../H-x86_64-mingw32/nios2-elf/lib/mno-hw-mul\libc.a(lib_a-callocr.o)
 .debug_loc     0x0000000000011d4e      0x2fc c:/intelfpga_lite/20.1/nios2eds/bin/gnu/h-x86_64-mingw32/bin/../lib/gcc/nios2-elf/10.1.1/../../../../../H-x86_64-mingw32/nios2-elf/lib/mno-hw-mul\libc.a(lib_a-fclose.o)
 .debug_loc     0x000000000001204a      0x12b c:/intelfpga_lite/20.1/nios2eds/bin/gnu/h-x86_64-mingw32/bin/../lib/gcc/nios2-elf/10.1.1/../../../../../H-x86_64-mingw32/nios2-elf/lib/mno-hw-mul\libc.a(lib_a-fiprintf.o)
 .debug_loc     0x0000000000012175      0x2eb c:/intelfpga_lite/20.1/nios2eds/bin/gnu/h-x86_64-mingw32/bin/../lib/gcc/nios2-elf/10.1.1/../../../../../H-x86_64-mingw32/nios2-elf/lib/mno-hw-mul\libc.a(lib_a-fputwc.o)
 .debug_loc     0x0000000000012460       0xbb c:/intelfpga_lite/20.1/nios2eds/bin/gnu/h-x86_64-mingw32/bin/../lib/gcc/nios2-elf/10.1.1/../../../../../H-x86_64-mingw32/nios2-elf/lib/mno-hw-mul\libc.a(lib_a-fstatr.o)
 .debug_loc     0x000000000001251b       0x89 c:/intelfpga_lite/20.1/nios2eds/bin/gnu/h-x86_64-mingw32/bin/../lib/gcc/nios2-elf/10.1.1/../../../../../H-x86_64-mingw32/nios2-elf/lib/mno-hw-mul\libc.a(lib_a-isattyr.o)
 .debug_loc     0x00000000000125a4      0x2f1 c:/intelfpga_lite/20.1/nios2eds/bin/gnu/h-x86_64-mingw32/bin/../lib/gcc/nios2-elf/10.1.1/../../../../../H-x86_64-mingw32/nios2-elf/lib/mno-hw-mul\libc.a(lib_a-locale.o)
 .debug_loc     0x0000000000012895       0xed c:/intelfpga_lite/20.1/nios2eds/bin/gnu/h-x86_64-mingw32/bin/../lib/gcc/nios2-elf/10.1.1/../../../../../H-x86_64-mingw32/nios2-elf/lib/mno-hw-mul\libc.a(lib_a-lseekr.o)
 .debug_loc     0x0000000000012982      0x119 c:/intelfpga_lite/20.1/nios2eds/bin/gnu/h-x86_64-mingw32/bin/../lib/gcc/nios2-elf/10.1.1/../../../../../H-x86_64-mingw32/nios2-elf/lib/mno-hw-mul\libc.a(lib_a-mbtowc_r.o)
 .debug_loc     0x0000000000012a9b       0xed c:/intelfpga_lite/20.1/nios2eds/bin/gnu/h-x86_64-mingw32/bin/../lib/gcc/nios2-elf/10.1.1/../../../../../H-x86_64-mingw32/nios2-elf/lib/mno-hw-mul\libc.a(lib_a-readr.o)
 .debug_loc     0x0000000000012b88       0x8e c:/intelfpga_lite/20.1/nios2eds/bin/gnu/h-x86_64-mingw32/bin/../lib/gcc/nios2-elf/10.1.1/../../../../../H-x86_64-mingw32/nios2-elf/lib/mno-hw-mul\libc.a(lib_a-strcmp.o)
 .debug_loc     0x0000000000012c16       0x94 c:/intelfpga_lite/20.1/nios2eds/bin/gnu/h-x86_64-mingw32/bin/../lib/gcc/nios2-elf/10.1.1/../../../../../H-x86_64-mingw32/nios2-elf/lib/mno-hw-mul\libc.a(lib_a-vfiprintfr_1.o)
 .debug_loc     0x0000000000012caa      0x2a4 c:/intelfpga_lite/20.1/nios2eds/bin/gnu/h-x86_64-mingw32/bin/../lib/gcc/nios2-elf/10.1.1/../../../../../H-x86_64-mingw32/nios2-elf/lib/mno-hw-mul\libc.a(lib_a-wcrtomb.o)
 .debug_loc     0x0000000000012f4e       0xa9 c:/intelfpga_lite/20.1/nios2eds/bin/gnu/h-x86_64-mingw32/bin/../lib/gcc/nios2-elf/10.1.1/../../../../../H-x86_64-mingw32/nios2-elf/lib/mno-hw-mul\libc.a(lib_a-wctomb_r.o)
 .debug_loc     0x0000000000012ff7      0x8e7 c:/intelfpga_lite/20.1/nios2eds/bin/gnu/h-x86_64-mingw32/bin/../lib/gcc/nios2-elf/10.1.1/../../../../../H-x86_64-mingw32/nios2-elf/lib/mno-hw-mul\libc.a(lib_a-signal.o)
 .debug_loc     0x00000000000138de       0xe0 c:/intelfpga_lite/20.1/nios2eds/bin/gnu/h-x86_64-mingw32/bin/../lib/gcc/nios2-elf/10.1.1/../../../../../H-x86_64-mingw32/nios2-elf/lib/mno-hw-mul\libc.a(lib_a-signalr.o)
 .debug_loc     0x00000000000139be      0x1eb c:/intelfpga_lite/20.1/nios2eds/bin/gnu/h-x86_64-mingw32/bin/../lib/gcc/nios2-elf/10.1.1/mno-hw-mul\libgcc.a(_muldi3.o)
 .debug_loc     0x0000000000013ba9     0x153c c:/intelfpga_lite/20.1/nios2eds/bin/gnu/h-x86_64-mingw32/bin/../lib/gcc/nios2-elf/10.1.1/mno-hw-mul\libgcc.a(_udivdi3.o)
 .debug_loc     0x00000000000150e5     0x1192 c:/intelfpga_lite/20.1/nios2eds/bin/gnu/h-x86_64-mingw32/bin/../lib/gcc/nios2-elf/10.1.1/mno-hw-mul\libgcc.a(_umoddi3.o)
 .debug_loc     0x0000000000016277     0x1f4b c:/intelfpga_lite/20.1/nios2eds/bin/gnu/h-x86_64-mingw32/bin/../lib/gcc/nios2-elf/10.1.1/mno-hw-mul\libgcc.a(adddf3.o)
 .debug_loc     0x00000000000181c2     0x2228 c:/intelfpga_lite/20.1/nios2eds/bin/gnu/h-x86_64-mingw32/bin/../lib/gcc/nios2-elf/10.1.1/mno-hw-mul\libgcc.a(divdf3.o)
 .debug_loc     0x000000000001a3ea      0x113 c:/intelfpga_lite/20.1/nios2eds/bin/gnu/h-x86_64-mingw32/bin/../lib/gcc/nios2-elf/10.1.1/mno-hw-mul\libgcc.a(eqdf2.o)
 .debug_loc     0x000000000001a4fd      0x185 c:/intelfpga_lite/20.1/nios2eds/bin/gnu/h-x86_64-mingw32/bin/../lib/gcc/nios2-elf/10.1.1/mno-hw-mul\libgcc.a(gedf2.o)
 .debug_loc     0x000000000001a682      0x177 c:/intelfpga_lite/20.1/nios2eds/bin/gnu/h-x86_64-mingw32/bin/../lib/gcc/nios2-elf/10.1.1/mno-hw-mul\libgcc.a(ledf2.o)
 .debug_loc     0x000000000001a7f9     0x1596 c:/intelfpga_lite/20.1/nios2eds/bin/gnu/h-x86_64-mingw32/bin/../lib/gcc/nios2-elf/10.1.1/mno-hw-mul\libgcc.a(muldf3.o)
 .debug_loc     0x000000000001bd8f     0x1e52 c:/intelfpga_lite/20.1/nios2eds/bin/gnu/h-x86_64-mingw32/bin/../lib/gcc/nios2-elf/10.1.1/mno-hw-mul\libgcc.a(subdf3.o)
 .debug_loc     0x000000000001dbe1       0x9e c:/intelfpga_lite/20.1/nios2eds/bin/gnu/h-x86_64-mingw32/bin/../lib/gcc/nios2-elf/10.1.1/mno-hw-mul\libgcc.a(unorddf2.o)
 .debug_loc     0x000000000001dc7f      0x1bf c:/intelfpga_lite/20.1/nios2eds/bin/gnu/h-x86_64-mingw32/bin/../lib/gcc/nios2-elf/10.1.1/mno-hw-mul\libgcc.a(fixdfsi.o)
 .debug_loc     0x000000000001de3e      0x239 c:/intelfpga_lite/20.1/nios2eds/bin/gnu/h-x86_64-mingw32/bin/../lib/gcc/nios2-elf/10.1.1/mno-hw-mul\libgcc.a(floatsidf.o)
 .debug_loc     0x000000000001e077      0x24d c:/intelfpga_lite/20.1/nios2eds/bin/gnu/h-x86_64-mingw32/bin/../lib/gcc/nios2-elf/10.1.1/mno-hw-mul\libgcc.a(floatunsidf.o)
 .debug_loc     0x000000000001e2c4       0xbe c:/intelfpga_lite/20.1/nios2eds/bin/gnu/h-x86_64-mingw32/bin/../lib/gcc/nios2-elf/10.1.1/mno-hw-mul\libgcc.a(_clzsi2.o)
 .debug_loc     0x000000000001e382       0x32 c:/intelfpga_lite/20.1/nios2eds/bin/gnu/h-x86_64-mingw32/bin/../lib/gcc/nios2-elf/10.1.1/../../../../../H-x86_64-mingw32/nios2-elf/lib/mno-hw-mul\libc.a(lib_a-atexit.o)
 .debug_loc     0x000000000001e3b4       0x22 c:/intelfpga_lite/20.1/nios2eds/bin/gnu/h-x86_64-mingw32/bin/../lib/gcc/nios2-elf/10.1.1/../../../../../H-x86_64-mingw32/nios2-elf/lib/mno-hw-mul\libc.a(lib_a-exit.o)
 .debug_loc     0x000000000001e3d6      0x158 c:/intelfpga_lite/20.1/nios2eds/bin/gnu/h-x86_64-mingw32/bin/../lib/gcc/nios2-elf/10.1.1/../../../../../H-x86_64-mingw32/nios2-elf/lib/mno-hw-mul\libc.a(lib_a-memcmp.o)
 .debug_loc     0x000000000001e52e       0xf7 c:/intelfpga_lite/20.1/nios2eds/bin/gnu/h-x86_64-mingw32/bin/../lib/gcc/nios2-elf/10.1.1/../../../../../H-x86_64-mingw32/nios2-elf/lib/mno-hw-mul\libc.a(lib_a-__atexit.o)
 .debug_loc     0x000000000001e625      0x1ca c:/intelfpga_lite/20.1/nios2eds/bin/gnu/h-x86_64-mingw32/bin/../lib/gcc/nios2-elf/10.1.1/../../../../../H-x86_64-mingw32/nios2-elf/lib/mno-hw-mul\libc.a(lib_a-__call_atexit.o)

.debug_macinfo
 *(.debug_macinfo)

.debug_weaknames
 *(.debug_weaknames)

.debug_funcnames
 *(.debug_funcnames)

.debug_typenames
 *(.debug_typenames)

.debug_varnames
 *(.debug_varnames)

.debug_alt_sim_info
                0x0000000000000000       0x40
 *(.debug_alt_sim_info)
 .debug_alt_sim_info
                0x0000000000000000       0x10 c:/fpga/DE1-SoC_v.5.1.3_HWrevF.revG_SystemCD/Demonstrations/FPGA/DE1_SoC_SDRAM_Nios_Test/software/sdram_nios_test_v2_bsp//obj/HAL/src/crt0.o
 .debug_alt_sim_info
                0x0000000000000010       0x30 c:/fpga/DE1-SoC_v.5.1.3_HWrevF.revG_SystemCD/Demonstrations/FPGA/DE1_SoC_SDRAM_Nios_Test/software/sdram_nios_test_v2_bsp/\libhal_bsp.a(alt_busy_sleep.o)
                0x0000000004000000                __alt_data_end = 0x4000000
                0x0000000004000000                PROVIDE (__alt_stack_pointer = __alt_data_end)
                [!provide]                        PROVIDE (__alt_stack_limit = __alt_stack_base)
                0x00000000000024b4                PROVIDE (__alt_heap_start = end)
                0x0000000004000000                PROVIDE (__alt_heap_limit = 0x4000000)
OUTPUT(sdram_nios_test_v2.elf elf32-littlenios2)
LOAD linker stubs

.debug_ranges   0x0000000000000000     0x2500
 .debug_ranges  0x0000000000000000       0x20 c:/fpga/DE1-SoC_v.5.1.3_HWrevF.revG_SystemCD/Demonstrations/FPGA/DE1_SoC_SDRAM_Nios_Test/software/sdram_nios_test_v2_bsp//obj/HAL/src/crt0.o
 .debug_ranges  0x0000000000000020       0x70 c:/intelfpga_lite/20.1/nios2eds/bin/gnu/h-x86_64-mingw32/bin/../lib/gcc/nios2-elf/10.1.1/mno-hw-mul\libgcc.a(lib2-divmod.o)
 .debug_ranges  0x0000000000000090       0x10 c:/intelfpga_lite/20.1/nios2eds/bin/gnu/h-x86_64-mingw32/bin/../lib/gcc/nios2-elf/10.1.1/../../../../../H-x86_64-mingw32/nios2-elf/lib/mno-hw-mul\libc.a(lib_a-memcpy.o)
 .debug_ranges  0x00000000000000a0       0x18 c:/intelfpga_lite/20.1/nios2eds/bin/gnu/h-x86_64-mingw32/bin/../lib/gcc/nios2-elf/10.1.1/../../../../../H-x86_64-mingw32/nios2-elf/lib/mno-hw-mul\libc.a(lib_a-printf.o)
 .debug_ranges  0x00000000000000b8       0x18 c:/intelfpga_lite/20.1/nios2eds/bin/gnu/h-x86_64-mingw32/bin/../lib/gcc/nios2-elf/10.1.1/../../../../../H-x86_64-mingw32/nios2-elf/lib/mno-hw-mul\libc.a(lib_a-putchar.o)
 .debug_ranges  0x00000000000000d0       0x30 c:/intelfpga_lite/20.1/nios2eds/bin/gnu/h-x86_64-mingw32/bin/../lib/gcc/nios2-elf/10.1.1/../../../../../H-x86_64-mingw32/nios2-elf/lib/mno-hw-mul\libc.a(lib_a-puts.o)
 .debug_ranges  0x0000000000000100       0x18 c:/intelfpga_lite/20.1/nios2eds/bin/gnu/h-x86_64-mingw32/bin/../lib/gcc/nios2-elf/10.1.1/../../../../../H-x86_64-mingw32/nios2-elf/lib/mno-hw-mul\libc.a(lib_a-rand.o)
 .debug_ranges  0x0000000000000118       0x10 c:/intelfpga_lite/20.1/nios2eds/bin/gnu/h-x86_64-mingw32/bin/../lib/gcc/nios2-elf/10.1.1/../../../../../H-x86_64-mingw32/nios2-elf/lib/mno-hw-mul\libc.a(lib_a-strlen.o)
 .debug_ranges  0x0000000000000128      0x1d8 c:/intelfpga_lite/20.1/nios2eds/bin/gnu/h-x86_64-mingw32/bin/../lib/gcc/nios2-elf/10.1.1/../../../../../H-x86_64-mingw32/nios2-elf/lib/mno-hw-mul\libc.a(lib_a-vfprintf.o)
 .debug_ranges  0x0000000000000300       0x30 c:/intelfpga_lite/20.1/nios2eds/bin/gnu/h-x86_64-mingw32/bin/../lib/gcc/nios2-elf/10.1.1/../../../../../H-x86_64-mingw32/nios2-elf/lib/mno-hw-mul\libc.a(lib_a-wsetup.o)
 .debug_ranges  0x0000000000000330       0x50 c:/intelfpga_lite/20.1/nios2eds/bin/gnu/h-x86_64-mingw32/bin/../lib/gcc/nios2-elf/10.1.1/../../../../../H-x86_64-mingw32/nios2-elf/lib/mno-hw-mul\libc.a(lib_a-dtoa.o)
 .debug_ranges  0x0000000000000380       0xc8 c:/intelfpga_lite/20.1/nios2eds/bin/gnu/h-x86_64-mingw32/bin/../lib/gcc/nios2-elf/10.1.1/../../../../../H-x86_64-mingw32/nios2-elf/lib/mno-hw-mul\libc.a(lib_a-fflush.o)
 .debug_ranges  0x0000000000000448      0x148 c:/intelfpga_lite/20.1/nios2eds/bin/gnu/h-x86_64-mingw32/bin/../lib/gcc/nios2-elf/10.1.1/../../../../../H-x86_64-mingw32/nios2-elf/lib/mno-hw-mul\libc.a(lib_a-findfp.o)
 .debug_ranges  0x0000000000000590       0x18 c:/intelfpga_lite/20.1/nios2eds/bin/gnu/h-x86_64-mingw32/bin/../lib/gcc/nios2-elf/10.1.1/../../../../../H-x86_64-mingw32/nios2-elf/lib/mno-hw-mul\libc.a(lib_a-freer.o)
 .debug_ranges  0x00000000000005a8       0x38 c:/intelfpga_lite/20.1/nios2eds/bin/gnu/h-x86_64-mingw32/bin/../lib/gcc/nios2-elf/10.1.1/../../../../../H-x86_64-mingw32/nios2-elf/lib/mno-hw-mul\libc.a(lib_a-fvwrite.o)
 .debug_ranges  0x00000000000005e0       0x18 c:/intelfpga_lite/20.1/nios2eds/bin/gnu/h-x86_64-mingw32/bin/../lib/gcc/nios2-elf/10.1.1/../../../../../H-x86_64-mingw32/nios2-elf/lib/mno-hw-mul\libc.a(lib_a-fwalk.o)
 .debug_ranges  0x00000000000005f8       0x20 c:/intelfpga_lite/20.1/nios2eds/bin/gnu/h-x86_64-mingw32/bin/../lib/gcc/nios2-elf/10.1.1/../../../../../H-x86_64-mingw32/nios2-elf/lib/mno-hw-mul\libc.a(lib_a-localeconv.o)
 .debug_ranges  0x0000000000000618       0xc0 c:/intelfpga_lite/20.1/nios2eds/bin/gnu/h-x86_64-mingw32/bin/../lib/gcc/nios2-elf/10.1.1/../../../../../H-x86_64-mingw32/nios2-elf/lib/mno-hw-mul\libc.a(lib_a-makebuf.o)
 .debug_ranges  0x00000000000006d8       0x60 c:/intelfpga_lite/20.1/nios2eds/bin/gnu/h-x86_64-mingw32/bin/../lib/gcc/nios2-elf/10.1.1/../../../../../H-x86_64-mingw32/nios2-elf/lib/mno-hw-mul\libc.a(lib_a-mallocr.o)
 .debug_ranges  0x0000000000000738       0x10 c:/intelfpga_lite/20.1/nios2eds/bin/gnu/h-x86_64-mingw32/bin/../lib/gcc/nios2-elf/10.1.1/../../../../../H-x86_64-mingw32/nios2-elf/lib/mno-hw-mul\libc.a(lib_a-memchr.o)
 .debug_ranges  0x0000000000000748       0x10 c:/intelfpga_lite/20.1/nios2eds/bin/gnu/h-x86_64-mingw32/bin/../lib/gcc/nios2-elf/10.1.1/../../../../../H-x86_64-mingw32/nios2-elf/lib/mno-hw-mul\libc.a(lib_a-memmove.o)
 .debug_ranges  0x0000000000000758       0x10 c:/intelfpga_lite/20.1/nios2eds/bin/gnu/h-x86_64-mingw32/bin/../lib/gcc/nios2-elf/10.1.1/../../../../../H-x86_64-mingw32/nios2-elf/lib/mno-hw-mul\libc.a(lib_a-memset.o)
 .debug_ranges  0x0000000000000768      0x1e0 c:/intelfpga_lite/20.1/nios2eds/bin/gnu/h-x86_64-mingw32/bin/../lib/gcc/nios2-elf/10.1.1/../../../../../H-x86_64-mingw32/nios2-elf/lib/mno-hw-mul\libc.a(lib_a-mprec.o)
 .debug_ranges  0x0000000000000948       0x58 c:/intelfpga_lite/20.1/nios2eds/bin/gnu/h-x86_64-mingw32/bin/../lib/gcc/nios2-elf/10.1.1/../../../../../H-x86_64-mingw32/nios2-elf/lib/mno-hw-mul\libc.a(lib_a-putc.o)
 .debug_ranges  0x00000000000009a0      0x160 c:/intelfpga_lite/20.1/nios2eds/bin/gnu/h-x86_64-mingw32/bin/../lib/gcc/nios2-elf/10.1.1/../../../../../H-x86_64-mingw32/nios2-elf/lib/mno-hw-mul\libc.a(lib_a-reallocr.o)
 .debug_ranges  0x0000000000000b00       0x10 c:/intelfpga_lite/20.1/nios2eds/bin/gnu/h-x86_64-mingw32/bin/../lib/gcc/nios2-elf/10.1.1/../../../../../H-x86_64-mingw32/nios2-elf/lib/mno-hw-mul\libc.a(lib_a-sbrkr.o)
 .debug_ranges  0x0000000000000b10       0x30 c:/intelfpga_lite/20.1/nios2eds/bin/gnu/h-x86_64-mingw32/bin/../lib/gcc/nios2-elf/10.1.1/../../../../../H-x86_64-mingw32/nios2-elf/lib/mno-hw-mul\libc.a(lib_a-stdio.o)
 .debug_ranges  0x0000000000000b40      0x1b8 c:/intelfpga_lite/20.1/nios2eds/bin/gnu/h-x86_64-mingw32/bin/../lib/gcc/nios2-elf/10.1.1/../../../../../H-x86_64-mingw32/nios2-elf/lib/mno-hw-mul\libc.a(lib_a-vfiprintf.o)
 .debug_ranges  0x0000000000000cf8       0x40 c:/intelfpga_lite/20.1/nios2eds/bin/gnu/h-x86_64-mingw32/bin/../lib/gcc/nios2-elf/10.1.1/../../../../../H-x86_64-mingw32/nios2-elf/lib/mno-hw-mul\libc.a(lib_a-wbuf.o)
 .debug_ranges  0x0000000000000d38       0x10 c:/intelfpga_lite/20.1/nios2eds/bin/gnu/h-x86_64-mingw32/bin/../lib/gcc/nios2-elf/10.1.1/../../../../../H-x86_64-mingw32/nios2-elf/lib/mno-hw-mul\libc.a(lib_a-writer.o)
 .debug_ranges  0x0000000000000d48       0x10 c:/intelfpga_lite/20.1/nios2eds/bin/gnu/h-x86_64-mingw32/bin/../lib/gcc/nios2-elf/10.1.1/../../../../../H-x86_64-mingw32/nios2-elf/lib/mno-hw-mul\libc.a(closer.o)
 .debug_ranges  0x0000000000000d58       0x18 c:/intelfpga_lite/20.1/nios2eds/bin/gnu/h-x86_64-mingw32/bin/../lib/gcc/nios2-elf/10.1.1/../../../../../H-x86_64-mingw32/nios2-elf/lib/mno-hw-mul\libc.a(lib_a-assert.o)
 .debug_ranges  0x0000000000000d70       0x50 c:/intelfpga_lite/20.1/nios2eds/bin/gnu/h-x86_64-mingw32/bin/../lib/gcc/nios2-elf/10.1.1/../../../../../H-x86_64-mingw32/nios2-elf/lib/mno-hw-mul\libc.a(lib_a-callocr.o)
 .debug_ranges  0x0000000000000dc0       0x90 c:/intelfpga_lite/20.1/nios2eds/bin/gnu/h-x86_64-mingw32/bin/../lib/gcc/nios2-elf/10.1.1/../../../../../H-x86_64-mingw32/nios2-elf/lib/mno-hw-mul\libc.a(lib_a-fclose.o)
 .debug_ranges  0x0000000000000e50       0x18 c:/intelfpga_lite/20.1/nios2eds/bin/gnu/h-x86_64-mingw32/bin/../lib/gcc/nios2-elf/10.1.1/../../../../../H-x86_64-mingw32/nios2-elf/lib/mno-hw-mul\libc.a(lib_a-fiprintf.o)
 .debug_ranges  0x0000000000000e68       0x58 c:/intelfpga_lite/20.1/nios2eds/bin/gnu/h-x86_64-mingw32/bin/../lib/gcc/nios2-elf/10.1.1/../../../../../H-x86_64-mingw32/nios2-elf/lib/mno-hw-mul\libc.a(lib_a-fputwc.o)
 .debug_ranges  0x0000000000000ec0       0x10 c:/intelfpga_lite/20.1/nios2eds/bin/gnu/h-x86_64-mingw32/bin/../lib/gcc/nios2-elf/10.1.1/../../../../../H-x86_64-mingw32/nios2-elf/lib/mno-hw-mul\libc.a(lib_a-fstatr.o)
 .debug_ranges  0x0000000000000ed0       0x10 c:/intelfpga_lite/20.1/nios2eds/bin/gnu/h-x86_64-mingw32/bin/../lib/gcc/nios2-elf/10.1.1/../../../../../H-x86_64-mingw32/nios2-elf/lib/mno-hw-mul\libc.a(lib_a-isattyr.o)
 .debug_ranges  0x0000000000000ee0       0x80 c:/intelfpga_lite/20.1/nios2eds/bin/gnu/h-x86_64-mingw32/bin/../lib/gcc/nios2-elf/10.1.1/../../../../../H-x86_64-mingw32/nios2-elf/lib/mno-hw-mul\libc.a(lib_a-locale.o)
 .debug_ranges  0x0000000000000f60       0x10 c:/intelfpga_lite/20.1/nios2eds/bin/gnu/h-x86_64-mingw32/bin/../lib/gcc/nios2-elf/10.1.1/../../../../../H-x86_64-mingw32/nios2-elf/lib/mno-hw-mul\libc.a(lib_a-lseekr.o)
 .debug_ranges  0x0000000000000f70       0x18 c:/intelfpga_lite/20.1/nios2eds/bin/gnu/h-x86_64-mingw32/bin/../lib/gcc/nios2-elf/10.1.1/../../../../../H-x86_64-mingw32/nios2-elf/lib/mno-hw-mul\libc.a(lib_a-mbtowc_r.o)
 .debug_ranges  0x0000000000000f88       0x10 c:/intelfpga_lite/20.1/nios2eds/bin/gnu/h-x86_64-mingw32/bin/../lib/gcc/nios2-elf/10.1.1/../../../../../H-x86_64-mingw32/nios2-elf/lib/mno-hw-mul\libc.a(lib_a-readr.o)
 .debug_ranges  0x0000000000000f98       0x10 c:/intelfpga_lite/20.1/nios2eds/bin/gnu/h-x86_64-mingw32/bin/../lib/gcc/nios2-elf/10.1.1/../../../../../H-x86_64-mingw32/nios2-elf/lib/mno-hw-mul\libc.a(lib_a-strcmp.o)
 .debug_ranges  0x0000000000000fa8       0x10 c:/intelfpga_lite/20.1/nios2eds/bin/gnu/h-x86_64-mingw32/bin/../lib/gcc/nios2-elf/10.1.1/../../../../../H-x86_64-mingw32/nios2-elf/lib/mno-hw-mul\libc.a(lib_a-vfiprintfr_1.o)
 .debug_ranges  0x0000000000000fb8       0x18 c:/intelfpga_lite/20.1/nios2eds/bin/gnu/h-x86_64-mingw32/bin/../lib/gcc/nios2-elf/10.1.1/../../../../../H-x86_64-mingw32/nios2-elf/lib/mno-hw-mul\libc.a(lib_a-wcrtomb.o)
 .debug_ranges  0x0000000000000fd0       0x18 c:/intelfpga_lite/20.1/nios2eds/bin/gnu/h-x86_64-mingw32/bin/../lib/gcc/nios2-elf/10.1.1/../../../../../H-x86_64-mingw32/nios2-elf/lib/mno-hw-mul\libc.a(lib_a-wctomb_r.o)
 .debug_ranges  0x0000000000000fe8       0x10 c:/intelfpga_lite/20.1/nios2eds/bin/gnu/h-x86_64-mingw32/bin/../lib/gcc/nios2-elf/10.1.1/../../../../../H-x86_64-mingw32/nios2-elf/lib/mno-hw-mul\libc.a(lib_a-abort.o)
 .debug_ranges  0x0000000000000ff8      0x100 c:/intelfpga_lite/20.1/nios2eds/bin/gnu/h-x86_64-mingw32/bin/../lib/gcc/nios2-elf/10.1.1/../../../../../H-x86_64-mingw32/nios2-elf/lib/mno-hw-mul\libc.a(lib_a-signal.o)
 .debug_ranges  0x00000000000010f8       0x18 c:/intelfpga_lite/20.1/nios2eds/bin/gnu/h-x86_64-mingw32/bin/../lib/gcc/nios2-elf/10.1.1/../../../../../H-x86_64-mingw32/nios2-elf/lib/mno-hw-mul\libc.a(lib_a-signalr.o)
 .debug_ranges  0x0000000000001110       0x40 c:/intelfpga_lite/20.1/nios2eds/bin/gnu/h-x86_64-mingw32/bin/../lib/gcc/nios2-elf/10.1.1/mno-hw-mul\libgcc.a(_muldi3.o)
 .debug_ranges  0x0000000000001150      0x1d8 c:/intelfpga_lite/20.1/nios2eds/bin/gnu/h-x86_64-mingw32/bin/../lib/gcc/nios2-elf/10.1.1/mno-hw-mul\libgcc.a(_udivdi3.o)
 .debug_ranges  0x0000000000001328      0x180 c:/intelfpga_lite/20.1/nios2eds/bin/gnu/h-x86_64-mingw32/bin/../lib/gcc/nios2-elf/10.1.1/mno-hw-mul\libgcc.a(_umoddi3.o)
 .debug_ranges  0x00000000000014a8      0x300 c:/intelfpga_lite/20.1/nios2eds/bin/gnu/h-x86_64-mingw32/bin/../lib/gcc/nios2-elf/10.1.1/mno-hw-mul\libgcc.a(adddf3.o)
 .debug_ranges  0x00000000000017a8      0x280 c:/intelfpga_lite/20.1/nios2eds/bin/gnu/h-x86_64-mingw32/bin/../lib/gcc/nios2-elf/10.1.1/mno-hw-mul\libgcc.a(divdf3.o)
 .debug_ranges  0x0000000000001a28       0x48 c:/intelfpga_lite/20.1/nios2eds/bin/gnu/h-x86_64-mingw32/bin/../lib/gcc/nios2-elf/10.1.1/mno-hw-mul\libgcc.a(eqdf2.o)
 .debug_ranges  0x0000000000001a70       0x70 c:/intelfpga_lite/20.1/nios2eds/bin/gnu/h-x86_64-mingw32/bin/../lib/gcc/nios2-elf/10.1.1/mno-hw-mul\libgcc.a(gedf2.o)
 .debug_ranges  0x0000000000001ae0       0x70 c:/intelfpga_lite/20.1/nios2eds/bin/gnu/h-x86_64-mingw32/bin/../lib/gcc/nios2-elf/10.1.1/mno-hw-mul\libgcc.a(ledf2.o)
 .debug_ranges  0x0000000000001b50      0x2a8 c:/intelfpga_lite/20.1/nios2eds/bin/gnu/h-x86_64-mingw32/bin/../lib/gcc/nios2-elf/10.1.1/mno-hw-mul\libgcc.a(muldf3.o)
 .debug_ranges  0x0000000000001df8      0x398 c:/intelfpga_lite/20.1/nios2eds/bin/gnu/h-x86_64-mingw32/bin/../lib/gcc/nios2-elf/10.1.1/mno-hw-mul\libgcc.a(subdf3.o)
 .debug_ranges  0x0000000000002190       0x48 c:/intelfpga_lite/20.1/nios2eds/bin/gnu/h-x86_64-mingw32/bin/../lib/gcc/nios2-elf/10.1.1/mno-hw-mul\libgcc.a(unorddf2.o)
 .debug_ranges  0x00000000000021d8       0x18 c:/intelfpga_lite/20.1/nios2eds/bin/gnu/h-x86_64-mingw32/bin/../lib/gcc/nios2-elf/10.1.1/mno-hw-mul\libgcc.a(fixdfsi.o)
 .debug_ranges  0x00000000000021f0       0xd8 c:/intelfpga_lite/20.1/nios2eds/bin/gnu/h-x86_64-mingw32/bin/../lib/gcc/nios2-elf/10.1.1/mno-hw-mul\libgcc.a(floatsidf.o)
 .debug_ranges  0x00000000000022c8       0xd8 c:/intelfpga_lite/20.1/nios2eds/bin/gnu/h-x86_64-mingw32/bin/../lib/gcc/nios2-elf/10.1.1/mno-hw-mul\libgcc.a(floatunsidf.o)
 .debug_ranges  0x00000000000023a0       0x20 c:/intelfpga_lite/20.1/nios2eds/bin/gnu/h-x86_64-mingw32/bin/../lib/gcc/nios2-elf/10.1.1/mno-hw-mul\libgcc.a(_clzsi2.o)
 .debug_ranges  0x00000000000023c0       0x30 c:/fpga/DE1-SoC_v.5.1.3_HWrevF.revG_SystemCD/Demonstrations/FPGA/DE1_SoC_SDRAM_Nios_Test/software/sdram_nios_test_v2_bsp/\libhal_bsp.a(altera_avalon_jtag_uart_init.o)
 .debug_ranges  0x00000000000023f0       0x18 c:/fpga/DE1-SoC_v.5.1.3_HWrevF.revG_SystemCD/Demonstrations/FPGA/DE1_SoC_SDRAM_Nios_Test/software/sdram_nios_test_v2_bsp/\libhal_bsp.a(altera_avalon_jtag_uart_read.o)
 .debug_ranges  0x0000000000002408       0x28 c:/fpga/DE1-SoC_v.5.1.3_HWrevF.revG_SystemCD/Demonstrations/FPGA/DE1_SoC_SDRAM_Nios_Test/software/sdram_nios_test_v2_bsp/\libhal_bsp.a(alt_irq_entry.o)
 .debug_ranges  0x0000000000002430       0x10 c:/fpga/DE1-SoC_v.5.1.3_HWrevF.revG_SystemCD/Demonstrations/FPGA/DE1_SoC_SDRAM_Nios_Test/software/sdram_nios_test_v2_bsp/\libhal_bsp.a(alt_irq_handler.o)
 .debug_ranges  0x0000000000002440       0x30 c:/fpga/DE1-SoC_v.5.1.3_HWrevF.revG_SystemCD/Demonstrations/FPGA/DE1_SoC_SDRAM_Nios_Test/software/sdram_nios_test_v2_bsp/\libhal_bsp.a(alt_exception_entry.o)
 .debug_ranges  0x0000000000002470       0x18 c:/fpga/DE1-SoC_v.5.1.3_HWrevF.revG_SystemCD/Demonstrations/FPGA/DE1_SoC_SDRAM_Nios_Test/software/sdram_nios_test_v2_bsp/\libhal_bsp.a(alt_instruction_exception_entry.o)
 .debug_ranges  0x0000000000002488       0x10 c:/intelfpga_lite/20.1/nios2eds/bin/gnu/h-x86_64-mingw32/bin/../lib/gcc/nios2-elf/10.1.1/../../../../../H-x86_64-mingw32/nios2-elf/lib/mno-hw-mul\libc.a(lib_a-atexit.o)
 .debug_ranges  0x0000000000002498       0x10 c:/intelfpga_lite/20.1/nios2eds/bin/gnu/h-x86_64-mingw32/bin/../lib/gcc/nios2-elf/10.1.1/../../../../../H-x86_64-mingw32/nios2-elf/lib/mno-hw-mul\libc.a(lib_a-exit.o)
 .debug_ranges  0x00000000000024a8       0x10 c:/intelfpga_lite/20.1/nios2eds/bin/gnu/h-x86_64-mingw32/bin/../lib/gcc/nios2-elf/10.1.1/../../../../../H-x86_64-mingw32/nios2-elf/lib/mno-hw-mul\libc.a(lib_a-memcmp.o)
 .debug_ranges  0x00000000000024b8       0x10 c:/intelfpga_lite/20.1/nios2eds/bin/gnu/h-x86_64-mingw32/bin/../lib/gcc/nios2-elf/10.1.1/../../../../../H-x86_64-mingw32/nios2-elf/lib/mno-hw-mul\libc.a(lib_a-__atexit.o)
 .debug_ranges  0x00000000000024c8       0x38 c:/intelfpga_lite/20.1/nios2eds/bin/gnu/h-x86_64-mingw32/bin/../lib/gcc/nios2-elf/10.1.1/../../../../../H-x86_64-mingw32/nios2-elf/lib/mno-hw-mul\libc.a(lib_a-__call_atexit.o)
